
========================================================================

** ELF Header Information

    File Name: ..\..\..\..\..\out_keil\linkit7697_hdk\gpio_configure_pull_state\Objects\gpio_configure_pull_state.axf

    Machine class: ELFCLASS32 (32-bit)
    Data encoding: ELFDATA2LSB (Little endian)
    Header version: EV_CURRENT (Current version)
    Operating System ABI: none
    ABI Version: 0
    File Type: ET_EXEC (Executable) (2)
    Machine: EM_ARM (ARM)

    Image Entry point: 0x10079001
    Flags: EF_ARM_HASENTRY (0x05000002)

    ARM ELF revision: 5 (ABI version 2)

    Conforms to Base float procedure-call standard

    Built with
    Component: ARM Compiler 5.06 update 5 (build 528) Tool: armasm [4d35e1]
    Component: ARM Compiler 5.06 update 5 (build 528) Tool: armlink [4d35e2]

    Header size: 52 bytes (0x34)
    Program header entry size: 32 bytes (0x20)
    Section header entry size: 40 bytes (0x28)

    Program header entries: 1
    Section header entries: 19

    Program header offset: 175388 (0x0002ad1c)
    Section header offset: 175420 (0x0002ad3c)

    Section header string table index: 18

========================================================================

** Program header #0 (PT_LOAD) [PF_X + PF_W + PF_R + PF_ARM_ENTRY]
    Size : 12984 bytes (8956 bytes in file)
    Virtual address: 0x10079000 (Alignment 8)


========================================================================

** Section #1 'TEXT' (SHT_PROGBITS) [SHF_ALLOC + SHF_EXECINSTR]
    Size   : 8352 bytes (alignment 4)
    Address: 0x10079000

    $t
    .reset_handler
    $v0
    Reset_Handler
        0x10079000:    f8dfd024    ..$.    LDR      sp,[pc,#36] ; [0x10079028] = 0x2003fc00
        0x10079004:    b672        r.      CPSID    i
        0x10079006:    4809        .H      LDR      r0,[pc,#36] ; [0x1007902c] = 0x100795fd
        0x10079008:    4780        .G      BLX      r0
        0x1007900a:    4809        .H      LDR      r0,[pc,#36] ; [0x10079030] = 0x10079859
        0x1007900c:    4780        .G      BLX      r0
        0x1007900e:    4809        .H      LDR      r0,[pc,#36] ; [0x10079034] = 0x10079039
        0x10079010:    4700        .G      BX       r0
        0x10079012:    bf00        ..      NOP      
    NMI_Handler
        0x10079014:    e7fe        ..      B        NMI_Handler ; 0x10079014
    HardFault_Handler
        0x10079016:    e7fe        ..      B        HardFault_Handler ; 0x10079016
    MemManage_Handler
        0x10079018:    e7fe        ..      B        MemManage_Handler ; 0x10079018
    BusFault_Handler
        0x1007901a:    e7fe        ..      B        BusFault_Handler ; 0x1007901a
    UsageFault_Handler
        0x1007901c:    e7fe        ..      B        UsageFault_Handler ; 0x1007901c
    SVC_Handler
        0x1007901e:    e7fe        ..      B        SVC_Handler ; 0x1007901e
    DebugMon_Handler
        0x10079020:    e7fe        ..      B        DebugMon_Handler ; 0x10079020
    PendSV_Handler
        0x10079022:    e7fe        ..      B        PendSV_Handler ; 0x10079022
    SysTick_Handler
        0x10079024:    e7fe        ..      B        SysTick_Handler ; 0x10079024
    $d
        0x10079026:    0000        ..      DCW    0
        0x10079028:    2003fc00    ...     DCD    537132032
        0x1007902c:    100795fd    ....    DCD    268932605
        0x10079030:    10079859    Y...    DCD    268933209
        0x10079034:    10079039    9...    DCD    268931129
    $t
    .ARM.Collect$$$$00000000
    .ARM.Collect$$$$00000001
    __main
    _main_stk
        0x10079038:    f8dfd00c    ....    LDR      sp,__lit__00000000 ; [0x10079048] = 0x2003fc00
    .ARM.Collect$$$$00000004
    _main_scatterload
        0x1007903c:    f000fa2a    ..*.    BL       __scatterload ; 0x10079494
    .ARM.Collect$$$$00000008
    .ARM.Collect$$$$0000000A
    .ARM.Collect$$$$0000000B
    __main_after_scatterload
    _main_clock
    _main_cpp_init
    _main_init
        0x10079040:    4800        .H      LDR      r0,[pc,#0] ; [0x10079044] = 0x1007abb5
        0x10079042:    4700        .G      BX       r0
    $d
        0x10079044:    1007abb5    ....    DCD    268938165
    .ARM.Collect$$$$00002712
    __lit__00000000
    .ARM.Collect$$$$0000000D
    .ARM.Collect$$$$0000000F
    __rt_final_cpp
    __rt_final_exit
        0x10079048:    2003fc00    ...     DCD    537132032
    $t
    .text
    __aeabi_memcpy
    __aeabi_memcpy4
    __aeabi_memcpy8
        0x1007904c:    ea400301    @...    ORR      r3,r0,r1
        0x10079050:    079b        ..      LSLS     r3,r3,#30
        0x10079052:    d003        ..      BEQ      0x1007905c ; __aeabi_memcpy + 16
        0x10079054:    e009        ..      B        0x1007906a ; __aeabi_memcpy + 30
        0x10079056:    c908        ..      LDM      r1!,{r3}
        0x10079058:    1f12        ..      SUBS     r2,r2,#4
        0x1007905a:    c008        ..      STM      r0!,{r3}
        0x1007905c:    2a04        .*      CMP      r2,#4
        0x1007905e:    d2fa        ..      BCS      0x10079056 ; __aeabi_memcpy + 10
        0x10079060:    e003        ..      B        0x1007906a ; __aeabi_memcpy + 30
        0x10079062:    f8113b01    ...;    LDRB     r3,[r1],#1
        0x10079066:    f8003b01    ...;    STRB     r3,[r0],#1
        0x1007906a:    1e52        R.      SUBS     r2,r2,#1
        0x1007906c:    d2f9        ..      BCS      0x10079062 ; __aeabi_memcpy + 22
        0x1007906e:    4770        pG      BX       lr
    .text
    __aeabi_memset
    __aeabi_memset4
    __aeabi_memset8
        0x10079070:    b2d2        ..      UXTB     r2,r2
        0x10079072:    e001        ..      B        0x10079078 ; __aeabi_memset + 8
        0x10079074:    f8002b01    ...+    STRB     r2,[r0],#1
        0x10079078:    1e49        I.      SUBS     r1,r1,#1
        0x1007907a:    d2fb        ..      BCS      0x10079074 ; __aeabi_memset + 4
        0x1007907c:    4770        pG      BX       lr
    __aeabi_memclr
    __aeabi_memclr4
    __aeabi_memclr8
        0x1007907e:    2200        ."      MOVS     r2,#0
        0x10079080:    e7f6        ..      B        __aeabi_memset ; 0x10079070
    _memset$wrapper
        0x10079082:    b510        ..      PUSH     {r4,lr}
        0x10079084:    4613        .F      MOV      r3,r2
        0x10079086:    460a        .F      MOV      r2,r1
        0x10079088:    4604        .F      MOV      r4,r0
        0x1007908a:    4619        .F      MOV      r1,r3
        0x1007908c:    f7fffff0    ....    BL       __aeabi_memset ; 0x10079070
        0x10079090:    4620         F      MOV      r0,r4
        0x10079092:    bd10        ..      POP      {r4,pc}
    .text
    __aeabi_uidiv
    __aeabi_uidivmod
        0x10079094:    b530        0.      PUSH     {r4,r5,lr}
        0x10079096:    460b        .F      MOV      r3,r1
        0x10079098:    4601        .F      MOV      r1,r0
        0x1007909a:    2000        .       MOVS     r0,#0
        0x1007909c:    2220         "      MOVS     r2,#0x20
        0x1007909e:    2401        .$      MOVS     r4,#1
        0x100790a0:    e009        ..      B        0x100790b6 ; __aeabi_uidiv + 34
        0x100790a2:    fa21f502    !...    LSR      r5,r1,r2
        0x100790a6:    429d        .B      CMP      r5,r3
        0x100790a8:    d305        ..      BCC      0x100790b6 ; __aeabi_uidiv + 34
        0x100790aa:    fa03f502    ....    LSL      r5,r3,r2
        0x100790ae:    1b49        I.      SUBS     r1,r1,r5
        0x100790b0:    fa04f502    ....    LSL      r5,r4,r2
        0x100790b4:    4428        (D      ADD      r0,r0,r5
        0x100790b6:    1e15        ..      SUBS     r5,r2,#0
        0x100790b8:    f1a20201    ....    SUB      r2,r2,#1
        0x100790bc:    dcf1        ..      BGT      0x100790a2 ; __aeabi_uidiv + 14
        0x100790be:    bd30        0.      POP      {r4,r5,pc}
    .text
    __aeabi_uldivmod
        0x100790c0:    e92d5ff0    -.._    PUSH     {r4-r12,lr}
        0x100790c4:    4605        .F      MOV      r5,r0
        0x100790c6:    2000        .       MOVS     r0,#0
        0x100790c8:    4692        .F      MOV      r10,r2
        0x100790ca:    469b        .F      MOV      r11,r3
        0x100790cc:    4688        .F      MOV      r8,r1
        0x100790ce:    4606        .F      MOV      r6,r0
        0x100790d0:    4681        .F      MOV      r9,r0
        0x100790d2:    2440        @$      MOVS     r4,#0x40
        0x100790d4:    e01b        ..      B        0x1007910e ; __aeabi_uldivmod + 78
        0x100790d6:    4628        (F      MOV      r0,r5
        0x100790d8:    4641        AF      MOV      r1,r8
        0x100790da:    4647        GF      MOV      r7,r8
        0x100790dc:    4622        "F      MOV      r2,r4
        0x100790de:    f000f9fa    ....    BL       __aeabi_llsr ; 0x100794d6
        0x100790e2:    4653        SF      MOV      r3,r10
        0x100790e4:    465a        ZF      MOV      r2,r11
        0x100790e6:    1ac0        ..      SUBS     r0,r0,r3
        0x100790e8:    4191        .A      SBCS     r1,r1,r2
        0x100790ea:    d310        ..      BCC      0x1007910e ; __aeabi_uldivmod + 78
        0x100790ec:    4611        .F      MOV      r1,r2
        0x100790ee:    4618        .F      MOV      r0,r3
        0x100790f0:    4622        "F      MOV      r2,r4
        0x100790f2:    f000f9e1    ....    BL       __aeabi_llsl ; 0x100794b8
        0x100790f6:    1a2d        -.      SUBS     r5,r5,r0
        0x100790f8:    eb670801    g...    SBC      r8,r7,r1
        0x100790fc:    464f        OF      MOV      r7,r9
        0x100790fe:    4622        "F      MOV      r2,r4
        0x10079100:    2001        .       MOVS     r0,#1
        0x10079102:    2100        .!      MOVS     r1,#0
        0x10079104:    f000f9d8    ....    BL       __aeabi_llsl ; 0x100794b8
        0x10079108:    eb170900    ....    ADDS     r9,r7,r0
        0x1007910c:    414e        NA      ADCS     r6,r6,r1
        0x1007910e:    1e20         .      SUBS     r0,r4,#0
        0x10079110:    f1a40401    ....    SUB      r4,r4,#1
        0x10079114:    dcdf        ..      BGT      0x100790d6 ; __aeabi_uldivmod + 22
        0x10079116:    4648        HF      MOV      r0,r9
        0x10079118:    4631        1F      MOV      r1,r6
        0x1007911a:    462a        *F      MOV      r2,r5
        0x1007911c:    4643        CF      MOV      r3,r8
        0x1007911e:    e8bd9ff0    ....    POP      {r4-r12,pc}
    .text
    .text
    __I$use$fp
    __aeabi_dadd
        0x10079122:    e92d4ffe    -..O    PUSH     {r1-r11,lr}
        0x10079126:    4680        .F      MOV      r8,r0
        0x10079128:    ea810003    ....    EOR      r0,r1,r3
        0x1007912c:    0fc0        ..      LSRS     r0,r0,#31
        0x1007912e:    460c        .F      MOV      r4,r1
        0x10079130:    9000        ..      STR      r0,[sp,#0]
        0x10079132:    f0214100    !..A    BIC      r1,r1,#0x80000000
        0x10079136:    f0234500    #..E    BIC      r5,r3,#0x80000000
        0x1007913a:    ebb80002    ....    SUBS     r0,r8,r2
        0x1007913e:    41a9        .A      SBCS     r1,r1,r5
        0x10079140:    d205        ..      BCS      0x1007914e ; __I$use$fp + 44
        0x10079142:    4640        @F      MOV      r0,r8
        0x10079144:    4621        !F      MOV      r1,r4
        0x10079146:    4690        .F      MOV      r8,r2
        0x10079148:    461c        .F      MOV      r4,r3
        0x1007914a:    460b        .F      MOV      r3,r1
        0x1007914c:    4602        .F      MOV      r2,r0
        0x1007914e:    f0234000    #..@    BIC      r0,r3,#0x80000000
        0x10079152:    4310        .C      ORRS     r0,r0,r2
        0x10079154:    d047        G.      BEQ      0x100791e6 ; __I$use$fp + 196
        0x10079156:    0d27        '.      LSRS     r7,r4,#20
        0x10079158:    f3c7000a    ....    UBFX     r0,r7,#0,#11
        0x1007915c:    f3c3510a    ...Q    UBFX     r1,r3,#20,#11
        0x10079160:    9002        ..      STR      r0,[sp,#8]
        0x10079162:    1a40        @.      SUBS     r0,r0,r1
        0x10079164:    9001        ..      STR      r0,[sp,#4]
        0x10079166:    2840        @(      CMP      r0,#0x40
        0x10079168:    da6b        k.      BGE      0x10079242 ; __I$use$fp + 288
        0x1007916a:    f3c30013    ....    UBFX     r0,r3,#0,#20
        0x1007916e:    f4401b80    @...    ORR      r11,r0,#0x100000
        0x10079172:    9800        ..      LDR      r0,[sp,#0]
        0x10079174:    4692        .F      MOV      r10,r2
        0x10079176:    b120         .      CBZ      r0,0x10079182 ; __I$use$fp + 96
        0x10079178:    2300        .#      MOVS     r3,#0
        0x1007917a:    ebd20a03    ....    RSBS     r10,r2,r3
        0x1007917e:    eb630b0b    c...    SBC      r11,r3,r11
        0x10079182:    9801        ..      LDR      r0,[sp,#4]
        0x10079184:    4659        YF      MOV      r1,r11
        0x10079186:    f1c00240    ..@.    RSB      r2,r0,#0x40
        0x1007918a:    4650        PF      MOV      r0,r10
        0x1007918c:    f000f994    ....    BL       __aeabi_llsl ; 0x100794b8
        0x10079190:    4606        .F      MOV      r6,r0
        0x10079192:    460d        .F      MOV      r5,r1
        0x10079194:    4650        PF      MOV      r0,r10
        0x10079196:    4659        YF      MOV      r1,r11
        0x10079198:    9a01        ..      LDR      r2,[sp,#4]
        0x1007919a:    f000f9ac    ....    BL       __aeabi_lasr ; 0x100794f6
        0x1007919e:    eb100008    ....    ADDS     r0,r0,r8
        0x100791a2:    4161        aA      ADCS     r1,r1,r4
        0x100791a4:    2400        .$      MOVS     r4,#0
        0x100791a6:    ea875211    ...R    EOR      r2,r7,r1,LSR #20
        0x100791aa:    ea8473e7    ...s    EOR      r3,r4,r7,ASR #31
        0x100791ae:    431a        .C      ORRS     r2,r2,r3
        0x100791b0:    d040        @.      BEQ      0x10079234 ; __I$use$fp + 274
        0x100791b2:    9a00        ..      LDR      r2,[sp,#0]
        0x100791b4:    b362        b.      CBZ      r2,0x10079210 ; __I$use$fp + 238
        0x100791b6:    9a01        ..      LDR      r2,[sp,#4]
        0x100791b8:    2a01        .*      CMP      r2,#1
        0x100791ba:    ea4f5207    O..R    LSL      r2,r7,#20
        0x100791be:    dc15        ..      BGT      0x100791ec ; __I$use$fp + 202
        0x100791c0:    1b00        ..      SUBS     r0,r0,r4
        0x100791c2:    eb610102    a...    SBC      r1,r1,r2
        0x100791c6:    f04f4200    O..B    MOV      r2,#0x80000000
        0x100791ca:    ea025207    ...R    AND      r2,r2,r7,LSL #20
        0x100791ce:    e9cd4200    ...B    STRD     r4,r2,[sp,#0]
        0x100791d2:    1c00        ..      ADDS     r0,r0,#0
        0x100791d4:    f5411180    A...    ADC      r1,r1,#0x100000
        0x100791d8:    4632        2F      MOV      r2,r6
        0x100791da:    462b        +F      MOV      r3,r5
        0x100791dc:    f000f9ac    ....    BL       _double_epilogue ; 0x10079538
        0x100791e0:    b003        ..      ADD      sp,sp,#0xc
        0x100791e2:    e8bd8ff0    ....    POP      {r4-r11,pc}
        0x100791e6:    4640        @F      MOV      r0,r8
        0x100791e8:    4621        !F      MOV      r1,r4
        0x100791ea:    e7f9        ..      B        0x100791e0 ; __I$use$fp + 190
        0x100791ec:    1b00        ..      SUBS     r0,r0,r4
        0x100791ee:    eb610102    a...    SBC      r1,r1,r2
        0x100791f2:    1c00        ..      ADDS     r0,r0,#0
        0x100791f4:    f5411380    A...    ADC      r3,r1,#0x100000
        0x100791f8:    1800        ..      ADDS     r0,r0,r0
        0x100791fa:    415b        [A      ADCS     r3,r3,r3
        0x100791fc:    1820         .      ADDS     r0,r4,r0
        0x100791fe:    f5a21700    ....    SUB      r7,r2,#0x200000
        0x10079202:    eb470103    G...    ADC      r1,r7,r3
        0x10079206:    ea4070d5    @..p    ORR      r0,r0,r5,LSR #31
        0x1007920a:    19b6        ..      ADDS     r6,r6,r6
        0x1007920c:    416d        mA      ADCS     r5,r5,r5
        0x1007920e:    e011        ..      B        0x10079234 ; __I$use$fp + 274
        0x10079210:    086d        m.      LSRS     r5,r5,#1
        0x10079212:    ea4f0636    O.6.    RRX      r6,r6
        0x10079216:    ea4575c0    E..u    ORR      r5,r5,r0,LSL #31
        0x1007921a:    ea4f5207    O..R    LSL      r2,r7,#20
        0x1007921e:    1b00        ..      SUBS     r0,r0,r4
        0x10079220:    eb610102    a...    SBC      r1,r1,r2
        0x10079224:    1c00        ..      ADDS     r0,r0,#0
        0x10079226:    f5411180    A...    ADC      r1,r1,#0x100000
        0x1007922a:    0849        I.      LSRS     r1,r1,#1
        0x1007922c:    ea4f0030    O.0.    RRX      r0,r0
        0x10079230:    1900        ..      ADDS     r0,r0,r4
        0x10079232:    4151        QA      ADCS     r1,r1,r2
        0x10079234:    4632        2F      MOV      r2,r6
        0x10079236:    462b        +F      MOV      r3,r5
        0x10079238:    b003        ..      ADD      sp,sp,#0xc
        0x1007923a:    e8bd4ff0    ...O    POP      {r4-r11,lr}
        0x1007923e:    f000b96c    ..l.    B.W      _double_round ; 0x1007951a
        0x10079242:    9800        ..      LDR      r0,[sp,#0]
        0x10079244:    2201        ."      MOVS     r2,#1
        0x10079246:    0040        @.      LSLS     r0,r0,#1
        0x10079248:    2300        .#      MOVS     r3,#0
        0x1007924a:    ebd00202    ....    RSBS     r2,r0,r2
        0x1007924e:    eb6373e0    c..s    SBC      r3,r3,r0,ASR #31
        0x10079252:    9800        ..      LDR      r0,[sp,#0]
        0x10079254:    4621        !F      MOV      r1,r4
        0x10079256:    ea4f74e0    O..t    ASR      r4,r0,#31
        0x1007925a:    ebb80000    ....    SUBS     r0,r8,r0
        0x1007925e:    eb610104    a...    SBC      r1,r1,r4
        0x10079262:    e7e9        ..      B        0x10079238 ; __I$use$fp + 278
    __aeabi_dsub
        0x10079264:    f0834300    ...C    EOR      r3,r3,#0x80000000
        0x10079268:    e75b        [.      B        __I$use$fp ; 0x10079122
    __aeabi_drsub
        0x1007926a:    f0814100    ...A    EOR      r1,r1,#0x80000000
        0x1007926e:    e758        X.      B        __I$use$fp ; 0x10079122
    .text
    __aeabi_dmul
        0x10079270:    e92d4ffe    -..O    PUSH     {r1-r11,lr}
        0x10079274:    ea810403    ....    EOR      r4,r1,r3
        0x10079278:    f0044400    ...D    AND      r4,r4,#0x80000000
        0x1007927c:    f0214100    !..A    BIC      r1,r1,#0x80000000
        0x10079280:    9400        ..      STR      r4,[sp,#0]
        0x10079282:    f04f0b00    O...    MOV      r11,#0
        0x10079286:    f0234300    #..C    BIC      r3,r3,#0x80000000
        0x1007928a:    ea500401    P...    ORRS     r4,r0,r1
        0x1007928e:    d05e        ^.      BEQ      0x1007934e ; __aeabi_dmul + 222
        0x10079290:    ea520403    R...    ORRS     r4,r2,r3
        0x10079294:    d05b        [.      BEQ      0x1007934e ; __aeabi_dmul + 222
        0x10079296:    f3c3540a    ...T    UBFX     r4,r3,#20,#11
        0x1007929a:    f3c1550a    ...U    UBFX     r5,r1,#20,#11
        0x1007929e:    442c        ,D      ADD      r4,r4,r5
        0x100792a0:    f2a434f3    ...4    SUB      r4,r4,#0x3f3
        0x100792a4:    9401        ..      STR      r4,[sp,#4]
        0x100792a6:    fba05402    ...T    UMULL    r5,r4,r0,r2
        0x100792aa:    f3c10113    ....    UBFX     r1,r1,#0,#20
        0x100792ae:    f4411180    A...    ORR      r1,r1,#0x100000
        0x100792b2:    f3c30313    ....    UBFX     r3,r3,#0,#20
        0x100792b6:    f4431380    C...    ORR      r3,r3,#0x100000
        0x100792ba:    fb014402    ...D    MLA      r4,r1,r2,r4
        0x100792be:    fb004e03    ...N    MLA      lr,r0,r3,r4
        0x100792c2:    0a84        ..      LSRS     r4,r0,#10
        0x100792c4:    0a97        ..      LSRS     r7,r2,#10
        0x100792c6:    ea445481    D..T    ORR      r4,r4,r1,LSL #22
        0x100792ca:    ea475783    G..W    ORR      r7,r7,r3,LSL #22
        0x100792ce:    fba46807    ...h    UMULL    r6,r8,r4,r7
        0x100792d2:    9502        ..      STR      r5,[sp,#8]
        0x100792d4:    0a8d        ..      LSRS     r5,r1,#10
        0x100792d6:    fb058507    ....    MLA      r5,r5,r7,r8
        0x100792da:    ea4f2c93    O..,    LSR      r12,r3,#10
        0x100792de:    fb04540c    ...T    MLA      r4,r4,r12,r5
        0x100792e2:    0527        '.      LSLS     r7,r4,#20
        0x100792e4:    9d02        ..      LDR      r5,[sp,#8]
        0x100792e6:    ea4f5806    O..X    LSL      r8,r6,#20
        0x100792ea:    ea473716    G..7    ORR      r7,r7,r6,LSR #12
        0x100792ee:    ebb50508    ....    SUBS     r5,r5,r8
        0x100792f2:    eb6e0c07    n...    SBC      r12,lr,r7
        0x100792f6:    0e87        ..      LSRS     r7,r0,#26
        0x100792f8:    0e92        ..      LSRS     r2,r2,#26
        0x100792fa:    ea471781    G...    ORR      r7,r7,r1,LSL #6
        0x100792fe:    ea421283    B...    ORR      r2,r2,r3,LSL #6
        0x10079302:    fba70102    ....    UMULL    r0,r1,r7,r2
        0x10079306:    ebb6010b    ....    SUBS     r1,r6,r11
        0x1007930a:    eb640400    d...    SBC      r4,r4,r0
        0x1007930e:    0d2b        +.      LSRS     r3,r5,#20
        0x10079310:    ea43330c    C..3    ORR      r3,r3,r12,LSL #12
        0x10079314:    185e        ^.      ADDS     r6,r3,r1
        0x10079316:    eb44501c    D..P    ADC      r0,r4,r12,LSR #20
        0x1007931a:    46da        .F      MOV      r10,r11
        0x1007931c:    4651        QF      MOV      r1,r10
        0x1007931e:    fbe70102    ....    UMLAL    r0,r1,r7,r2
        0x10079322:    f3c50413    ....    UBFX     r4,r5,#0,#20
        0x10079326:    ea4f330b    O..3    LSL      r3,r11,#12
        0x1007932a:    ea435314    C..S    ORR      r3,r3,r4,LSR #20
        0x1007932e:    ea4f3204    O..2    LSL      r2,r4,#12
        0x10079332:    9c01        ..      LDR      r4,[sp,#4]
        0x10079334:    ea430306    C...    ORR      r3,r3,r6
        0x10079338:    f1a4040c    ....    SUB      r4,r4,#0xc
        0x1007933c:    9402        ..      STR      r4,[sp,#8]
        0x1007933e:    9c00        ..      LDR      r4,[sp,#0]
        0x10079340:    e9cdb400    ....    STRD     r11,r4,[sp,#0]
        0x10079344:    f000f8f8    ....    BL       _double_epilogue ; 0x10079538
        0x10079348:    b003        ..      ADD      sp,sp,#0xc
        0x1007934a:    e8bd8ff0    ....    POP      {r4-r11,pc}
        0x1007934e:    2000        .       MOVS     r0,#0
        0x10079350:    4601        .F      MOV      r1,r0
        0x10079352:    e7f9        ..      B        0x10079348 ; __aeabi_dmul + 216
    .text
    __aeabi_ddiv
        0x10079354:    e92d4df0    -..M    PUSH     {r4-r8,r10,r11,lr}
        0x10079358:    ea810403    ....    EOR      r4,r1,r3
        0x1007935c:    f0044b00    ...K    AND      r11,r4,#0x80000000
        0x10079360:    f0214500    !..E    BIC      r5,r1,#0x80000000
        0x10079364:    4614        .F      MOV      r4,r2
        0x10079366:    f04f0a00    O...    MOV      r10,#0
        0x1007936a:    f0234100    #..A    BIC      r1,r3,#0x80000000
        0x1007936e:    ea500205    P...    ORRS     r2,r0,r5
        0x10079372:    d020         .      BEQ      0x100793b6 ; __aeabi_ddiv + 98
        0x10079374:    ea540201    T...    ORRS     r2,r4,r1
        0x10079378:    d01d        ..      BEQ      0x100793b6 ; __aeabi_ddiv + 98
        0x1007937a:    f3c5570a    ...W    UBFX     r7,r5,#20,#11
        0x1007937e:    4602        .F      MOV      r2,r0
        0x10079380:    f3c50313    ....    UBFX     r3,r5,#0,#20
        0x10079384:    f3c10013    ....    UBFX     r0,r1,#0,#20
        0x10079388:    f3c1560a    ...V    UBFX     r6,r1,#20,#11
        0x1007938c:    f4401580    @...    ORR      r5,r0,#0x100000
        0x10079390:    f4431380    C...    ORR      r3,r3,#0x100000
        0x10079394:    eba70806    ....    SUB      r8,r7,r6
        0x10079398:    1b10        ..      SUBS     r0,r2,r4
        0x1007939a:    46d6        .F      MOV      lr,r10
        0x1007939c:    f20838fd    ...8    ADD      r8,r8,#0x3fd
        0x100793a0:    eb730005    s...    SBCS     r0,r3,r5
        0x100793a4:    d302        ..      BCC      0x100793ac ; __aeabi_ddiv + 88
        0x100793a6:    f1080801    ....    ADD      r8,r8,#1
        0x100793aa:    e001        ..      B        0x100793b0 ; __aeabi_ddiv + 92
        0x100793ac:    1892        ..      ADDS     r2,r2,r2
        0x100793ae:    415b        [A      ADCS     r3,r3,r3
        0x100793b0:    f1b80f00    ....    CMP      r8,#0
        0x100793b4:    da03        ..      BGE      0x100793be ; __aeabi_ddiv + 106
        0x100793b6:    2000        .       MOVS     r0,#0
        0x100793b8:    4601        .F      MOV      r1,r0
        0x100793ba:    e8bd8df0    ....    POP      {r4-r8,r10,r11,pc}
        0x100793be:    2000        .       MOVS     r0,#0
        0x100793c0:    f44f1180    O...    MOV      r1,#0x100000
        0x100793c4:    4606        .F      MOV      r6,r0
        0x100793c6:    4684        .F      MOV      r12,r0
        0x100793c8:    e00e        ..      B        0x100793e8 ; __aeabi_ddiv + 148
        0x100793ca:    1b17        ..      SUBS     r7,r2,r4
        0x100793cc:    eb730705    s...    SBCS     r7,r3,r5
        0x100793d0:    d305        ..      BCC      0x100793de ; __aeabi_ddiv + 138
        0x100793d2:    1b12        ..      SUBS     r2,r2,r4
        0x100793d4:    eb630305    c...    SBC      r3,r3,r5
        0x100793d8:    4306        .C      ORRS     r6,r6,r0
        0x100793da:    ea4c0c01    L...    ORR      r12,r12,r1
        0x100793de:    0849        I.      LSRS     r1,r1,#1
        0x100793e0:    ea4f0030    O.0.    RRX      r0,r0
        0x100793e4:    1892        ..      ADDS     r2,r2,r2
        0x100793e6:    415b        [A      ADCS     r3,r3,r3
        0x100793e8:    ea500701    P...    ORRS     r7,r0,r1
        0x100793ec:    d1ed        ..      BNE      0x100793ca ; __aeabi_ddiv + 118
        0x100793ee:    ea520003    R...    ORRS     r0,r2,r3
        0x100793f2:    d012        ..      BEQ      0x1007941a ; __aeabi_ddiv + 198
        0x100793f4:    ea820004    ....    EOR      r0,r2,r4
        0x100793f8:    ea830105    ....    EOR      r1,r3,r5
        0x100793fc:    4308        .C      ORRS     r0,r0,r1
        0x100793fe:    d005        ..      BEQ      0x1007940c ; __aeabi_ddiv + 184
        0x10079400:    1b10        ..      SUBS     r0,r2,r4
        0x10079402:    41ab        .A      SBCS     r3,r3,r5
        0x10079404:    d206        ..      BCS      0x10079414 ; __aeabi_ddiv + 192
        0x10079406:    2201        ."      MOVS     r2,#1
        0x10079408:    2300        .#      MOVS     r3,#0
        0x1007940a:    e006        ..      B        0x1007941a ; __aeabi_ddiv + 198
        0x1007940c:    2200        ."      MOVS     r2,#0
        0x1007940e:    f04f4300    O..C    MOV      r3,#0x80000000
        0x10079412:    e002        ..      B        0x1007941a ; __aeabi_ddiv + 198
        0x10079414:    f06f0201    o...    MVN      r2,#1
        0x10079418:    1053        S.      ASRS     r3,r2,#1
        0x1007941a:    eb1a0006    ....    ADDS     r0,r10,r6
        0x1007941e:    eb4c5108    L..Q    ADC      r1,r12,r8,LSL #20
        0x10079422:    eb10000a    ....    ADDS     r0,r0,r10
        0x10079426:    eb41010b    A...    ADC      r1,r1,r11
        0x1007942a:    e8bd4df0    ...M    POP      {r4-r8,r10,r11,lr}
        0x1007942e:    f000b874    ..t.    B.W      _double_round ; 0x1007951a
    .text
    __aeabi_d2ulz
        0x10079432:    f3c1520a    ...R    UBFX     r2,r1,#20,#11
        0x10079436:    f3c10113    ....    UBFX     r1,r1,#0,#20
        0x1007943a:    f24033ff    @..3    MOV      r3,#0x3ff
        0x1007943e:    f4411180    A...    ORR      r1,r1,#0x100000
        0x10079442:    429a        .B      CMP      r2,r3
        0x10079444:    da02        ..      BGE      0x1007944c ; __aeabi_d2ulz + 26
        0x10079446:    2000        .       MOVS     r0,#0
        0x10079448:    4601        .F      MOV      r1,r0
        0x1007944a:    4770        pG      BX       lr
        0x1007944c:    f2404333    @.3C    MOV      r3,#0x433
        0x10079450:    429a        .B      CMP      r2,r3
        0x10079452:    f2a24233    ..3B    SUB      r2,r2,#0x433
        0x10079456:    dc02        ..      BGT      0x1007945e ; __aeabi_d2ulz + 44
        0x10079458:    4252        RB      RSBS     r2,r2,#0
        0x1007945a:    f000b83c    ..<.    B.W      __aeabi_llsr ; 0x100794d6
        0x1007945e:    f000b82b    ..+.    B.W      __aeabi_llsl ; 0x100794b8
        0x10079462:    0000        ..      MOVS     r0,r0
    .text
    __aeabi_cdrcmple
        0x10079464:    b530        0.      PUSH     {r4,r5,lr}
        0x10079466:    1e04        ..      SUBS     r4,r0,#0
        0x10079468:    f1710400    q...    SBCS     r4,r1,#0
        0x1007946c:    db04        ..      BLT      0x10079478 ; __aeabi_cdrcmple + 20
        0x1007946e:    f04f4400    O..D    MOV      r4,#0x80000000
        0x10079472:    4240        @B      RSBS     r0,r0,#0
        0x10079474:    eb640101    d...    SBC      r1,r4,r1
        0x10079478:    1e14        ..      SUBS     r4,r2,#0
        0x1007947a:    f1730400    s...    SBCS     r4,r3,#0
        0x1007947e:    db05        ..      BLT      0x1007948c ; __aeabi_cdrcmple + 40
        0x10079480:    461c        .F      MOV      r4,r3
        0x10079482:    f04f4300    O..C    MOV      r3,#0x80000000
        0x10079486:    4252        RB      RSBS     r2,r2,#0
        0x10079488:    eb630304    c...    SBC      r3,r3,r4
        0x1007948c:    4299        .B      CMP      r1,r3
        0x1007948e:    bf08        ..      IT       EQ
        0x10079490:    4290        .B      CMPEQ    r0,r2
        0x10079492:    bd30        0.      POP      {r4,r5,pc}
    .text
    __scatterload
    __scatterload_rt2
        0x10079494:    4c06        .L      LDR      r4,[pc,#24] ; [0x100794b0] = 0x1007b050
        0x10079496:    4d07        .M      LDR      r5,[pc,#28] ; [0x100794b4] = 0x1007b0a0
        0x10079498:    e006        ..      B        0x100794a8 ; __scatterload + 20
        0x1007949a:    68e0        .h      LDR      r0,[r4,#0xc]
        0x1007949c:    f0400301    @...    ORR      r3,r0,#1
        0x100794a0:    e8940007    ....    LDM      r4,{r0-r2}
        0x100794a4:    4798        .G      BLX      r3
        0x100794a6:    3410        .4      ADDS     r4,r4,#0x10
        0x100794a8:    42ac        .B      CMP      r4,r5
        0x100794aa:    d3f6        ..      BCC      0x1007949a ; __scatterload + 6
        0x100794ac:    f7fffdc8    ....    BL       __main_after_scatterload ; 0x10079040
    $d
        0x100794b0:    1007b050    P...    DCD    268939344
        0x100794b4:    1007b0a0    ....    DCD    268939424
    $t
    .text
    __aeabi_llsl
    _ll_shift_l
        0x100794b8:    2a20         *      CMP      r2,#0x20
        0x100794ba:    db04        ..      BLT      0x100794c6 ; __aeabi_llsl + 14
        0x100794bc:    3a20         :      SUBS     r2,r2,#0x20
        0x100794be:    fa00f102    ....    LSL      r1,r0,r2
        0x100794c2:    2000        .       MOVS     r0,#0
        0x100794c4:    4770        pG      BX       lr
        0x100794c6:    4091        .@      LSLS     r1,r1,r2
        0x100794c8:    f1c20320    .. .    RSB      r3,r2,#0x20
        0x100794cc:    fa20f303     ...    LSR      r3,r0,r3
        0x100794d0:    4319        .C      ORRS     r1,r1,r3
        0x100794d2:    4090        .@      LSLS     r0,r0,r2
        0x100794d4:    4770        pG      BX       lr
    .text
    __aeabi_llsr
    _ll_ushift_r
        0x100794d6:    2a20         *      CMP      r2,#0x20
        0x100794d8:    db04        ..      BLT      0x100794e4 ; __aeabi_llsr + 14
        0x100794da:    3a20         :      SUBS     r2,r2,#0x20
        0x100794dc:    fa21f002    !...    LSR      r0,r1,r2
        0x100794e0:    2100        .!      MOVS     r1,#0
        0x100794e2:    4770        pG      BX       lr
        0x100794e4:    fa21f302    !...    LSR      r3,r1,r2
        0x100794e8:    40d0        .@      LSRS     r0,r0,r2
        0x100794ea:    f1c20220    .. .    RSB      r2,r2,#0x20
        0x100794ee:    4091        .@      LSLS     r1,r1,r2
        0x100794f0:    4308        .C      ORRS     r0,r0,r1
        0x100794f2:    4619        .F      MOV      r1,r3
        0x100794f4:    4770        pG      BX       lr
    .text
    __aeabi_lasr
    _ll_sshift_r
        0x100794f6:    2a20         *      CMP      r2,#0x20
        0x100794f8:    db06        ..      BLT      0x10079508 ; __aeabi_lasr + 18
        0x100794fa:    17cb        ..      ASRS     r3,r1,#31
        0x100794fc:    3a20         :      SUBS     r2,r2,#0x20
        0x100794fe:    fa41f002    A...    ASR      r0,r1,r2
        0x10079502:    ea4373e0    C..s    ORR      r3,r3,r0,ASR #31
        0x10079506:    e006        ..      B        0x10079516 ; __aeabi_lasr + 32
        0x10079508:    fa41f302    A...    ASR      r3,r1,r2
        0x1007950c:    40d0        .@      LSRS     r0,r0,r2
        0x1007950e:    f1c20220    .. .    RSB      r2,r2,#0x20
        0x10079512:    4091        .@      LSLS     r1,r1,r2
        0x10079514:    4308        .C      ORRS     r0,r0,r1
        0x10079516:    4619        .F      MOV      r1,r3
        0x10079518:    4770        pG      BX       lr
    .text
    _double_round
        0x1007951a:    b510        ..      PUSH     {r4,lr}
        0x1007951c:    1e14        ..      SUBS     r4,r2,#0
        0x1007951e:    f1730400    s...    SBCS     r4,r3,#0
        0x10079522:    da08        ..      BGE      0x10079536 ; _double_round + 28
        0x10079524:    1c40        @.      ADDS     r0,r0,#1
        0x10079526:    f1410100    A...    ADC      r1,r1,#0
        0x1007952a:    1892        ..      ADDS     r2,r2,r2
        0x1007952c:    415b        [A      ADCS     r3,r3,r3
        0x1007952e:    431a        .C      ORRS     r2,r2,r3
        0x10079530:    d101        ..      BNE      0x10079536 ; _double_round + 28
        0x10079532:    f0200001     ...    BIC      r0,r0,#1
        0x10079536:    bd10        ..      POP      {r4,pc}
    _double_epilogue
        0x10079538:    e92d4df0    -..M    PUSH     {r4-r8,r10,r11,lr}
        0x1007953c:    4692        .F      MOV      r10,r2
        0x1007953e:    469b        .F      MOV      r11,r3
        0x10079540:    b111        ..      CBZ      r1,0x10079548 ; _double_epilogue + 16
        0x10079542:    fab1f281    ....    CLZ      r2,r1
        0x10079546:    e002        ..      B        0x1007954e ; _double_epilogue + 22
        0x10079548:    fab0f280    ....    CLZ      r2,r0
        0x1007954c:    3220         2      ADDS     r2,r2,#0x20
        0x1007954e:    4690        .F      MOV      r8,r2
        0x10079550:    f7ffffb2    ....    BL       __aeabi_llsl ; 0x100794b8
        0x10079554:    4604        .F      MOV      r4,r0
        0x10079556:    460f        .F      MOV      r7,r1
        0x10079558:    ea40000a    @...    ORR      r0,r0,r10
        0x1007955c:    ea41010b    A...    ORR      r1,r1,r11
        0x10079560:    4653        SF      MOV      r3,r10
        0x10079562:    465a        ZF      MOV      r2,r11
        0x10079564:    4308        .C      ORRS     r0,r0,r1
        0x10079566:    d013        ..      BEQ      0x10079590 ; _double_epilogue + 88
        0x10079568:    4611        .F      MOV      r1,r2
        0x1007956a:    ea530001    S...    ORRS     r0,r3,r1
        0x1007956e:    d019        ..      BEQ      0x100795a4 ; _double_epilogue + 108
        0x10079570:    f1c80240    ..@.    RSB      r2,r8,#0x40
        0x10079574:    4650        PF      MOV      r0,r10
        0x10079576:    f7ffffae    ....    BL       __aeabi_llsr ; 0x100794d6
        0x1007957a:    4605        .F      MOV      r5,r0
        0x1007957c:    460e        .F      MOV      r6,r1
        0x1007957e:    4650        PF      MOV      r0,r10
        0x10079580:    4659        YF      MOV      r1,r11
        0x10079582:    4642        BF      MOV      r2,r8
        0x10079584:    f7ffff98    ....    BL       __aeabi_llsl ; 0x100794b8
        0x10079588:    4308        .C      ORRS     r0,r0,r1
        0x1007958a:    d005        ..      BEQ      0x10079598 ; _double_epilogue + 96
        0x1007958c:    2001        .       MOVS     r0,#1
        0x1007958e:    e004        ..      B        0x1007959a ; _double_epilogue + 98
        0x10079590:    4620         F      MOV      r0,r4
        0x10079592:    4639        9F      MOV      r1,r7
        0x10079594:    e8bd8df0    ....    POP      {r4-r8,r10,r11,pc}
        0x10079598:    2000        .       MOVS     r0,#0
        0x1007959a:    4305        .C      ORRS     r5,r5,r0
        0x1007959c:    ea4676e0    F..v    ORR      r6,r6,r0,ASR #31
        0x100795a0:    432c        ,C      ORRS     r4,r4,r5
        0x100795a2:    4337        7C      ORRS     r7,r7,r6
        0x100795a4:    980a        ..      LDR      r0,[sp,#0x28]
        0x100795a6:    0563        c.      LSLS     r3,r4,#21
        0x100795a8:    0ae4        ..      LSRS     r4,r4,#11
        0x100795aa:    eba00008    ....    SUB      r0,r0,r8
        0x100795ae:    2200        ."      MOVS     r2,#0
        0x100795b0:    0afd        ..      LSRS     r5,r7,#11
        0x100795b2:    ea445447    D.GT    ORR      r4,r4,r7,LSL #21
        0x100795b6:    300a        .0      ADDS     r0,r0,#0xa
        0x100795b8:    d502        ..      BPL      0x100795c0 ; _double_epilogue + 136
        0x100795ba:    2000        .       MOVS     r0,#0
        0x100795bc:    4601        .F      MOV      r1,r0
        0x100795be:    e7e9        ..      B        0x10079594 ; _double_epilogue + 92
        0x100795c0:    0501        ..      LSLS     r1,r0,#20
        0x100795c2:    1910        ..      ADDS     r0,r2,r4
        0x100795c4:    4169        iA      ADCS     r1,r1,r5
        0x100795c6:    e9dd4508    ...E    LDRD     r4,r5,[sp,#0x20]
        0x100795ca:    1900        ..      ADDS     r0,r0,r4
        0x100795cc:    4169        iA      ADCS     r1,r1,r5
        0x100795ce:    e8bd4df0    ...M    POP      {r4-r8,r10,r11,lr}
        0x100795d2:    e7a2        ..      B        _double_round ; 0x1007951a
    $Ven$TT$L$$save_and_set_interrupt_mask
        0x100795d4:    f2400c6d    @.m.    MOVW     r12,#0x6d
        0x100795d8:    f2c00c10    ....    MOVT     r12,#0x10
        0x100795dc:    4760        `G      BX       r12
    $Ven$TT$L$$restore_interrupt_mask
        0x100795de:    f2400c75    @.u.    MOVW     r12,#0x75
        0x100795e2:    f2c00c10    ....    MOVT     r12,#0x10
        0x100795e6:    4760        `G      BX       r12
    i.CM4_GPT2Init
    CM4_GPT2Init
        0x100795e8:    2200        ."      MOVS     r2,#0
        0x100795ea:    2101        .!      MOVS     r1,#1
        0x100795ec:    2002        .       MOVS     r0,#2
        0x100795ee:    f000b845    ..E.    B.W      GPT_init ; 0x1007967c
    i.CM4_GPT4Init
    CM4_GPT4Init
        0x100795f2:    2200        ."      MOVS     r2,#0
        0x100795f4:    2101        .!      MOVS     r1,#1
        0x100795f6:    2004        .       MOVS     r0,#4
        0x100795f8:    f000b840    ..@.    B.W      GPT_init ; 0x1007967c
    i.CachePreInit
    CachePreInit
        0x100795fc:    4809        .H      LDR      r0,[pc,#36] ; [0x10079624] = 0x1530000
        0x100795fe:    2100        .!      MOVS     r1,#0
        0x10079600:    6001        .`      STR      r1,[r0,#0]
        0x10079602:    2113        .!      MOVS     r1,#0x13
        0x10079604:    6041        A`      STR      r1,[r0,#4]
        0x10079606:    2103        .!      MOVS     r1,#3
        0x10079608:    6041        A`      STR      r1,[r0,#4]
        0x1007960a:    f04f71aa    O..q    MOV      r1,#0x1540000
        0x1007960e:    4a06        .J      LDR      r2,[pc,#24] ; [0x10079628] = 0x10079100
        0x10079610:    600a        .`      STR      r2,[r1,#0]
        0x10079612:    4a06        .J      LDR      r2,[pc,#24] ; [0x1007962c] = 0x10266000
        0x10079614:    640a        .d      STR      r2,[r1,#0x40]
        0x10079616:    2101        .!      MOVS     r1,#1
        0x10079618:    62c1        .b      STR      r1,[r0,#0x2c]
        0x1007961a:    f240310d    @..1    MOV      r1,#0x30d
        0x1007961e:    6001        .`      STR      r1,[r0,#0]
        0x10079620:    4770        pG      BX       lr
    $d
        0x10079622:    0000        ..      DCW    0
        0x10079624:    01530000    ..S.    DCD    22216704
        0x10079628:    10079100    ....    DCD    268931328
        0x1007962c:    10266000    .`&.    DCD    270950400
    $t
    i.DMA_Vfifo_disable_interrupt
    DMA_Vfifo_disable_interrupt
        0x10079630:    0201        ..      LSLS     r1,r0,#8
        0x10079632:    4803        .H      LDR      r0,[pc,#12] ; [0x10079640] = 0x83010000
        0x10079634:    4408        .D      ADD      r0,r0,r1
        0x10079636:    6941        Ai      LDR      r1,[r0,#0x14]
        0x10079638:    f4214100    !..A    BIC      r1,r1,#0x8000
        0x1007963c:    6141        Aa      STR      r1,[r0,#0x14]
        0x1007963e:    4770        pG      BX       lr
    $d
        0x10079640:    83010000    ....    DCD    2197880832
    $t
    i.GPT_INT_Handler
    GPT_INT_Handler
        0x10079644:    490b        .I      LDR      r1,[pc,#44] ; [0x10079674] = 0x83050000
        0x10079646:    b510        ..      PUSH     {r4,lr}
        0x10079648:    6808        .h      LDR      r0,[r1,#0]
        0x1007964a:    b280        ..      UXTH     r0,r0
        0x1007964c:    6008        .`      STR      r0,[r1,#0]
        0x1007964e:    4c0a        .L      LDR      r4,[pc,#40] ; [0x10079678] = 0x20000588
        0x10079650:    07c1        ..      LSLS     r1,r0,#31
        0x10079652:    d004        ..      BEQ      0x1007965e ; GPT_INT_Handler + 26
        0x10079654:    2000        .       MOVS     r0,#0
        0x10079656:    f000fd93    ....    BL       clear_TMR_INT_status_bit ; 0x1007a180
        0x1007965a:    6820         h      LDR      r0,[r4,#0]
        0x1007965c:    e005        ..      B        0x1007966a ; GPT_INT_Handler + 38
        0x1007965e:    0780        ..      LSLS     r0,r0,#30
        0x10079660:    d506        ..      BPL      0x10079670 ; GPT_INT_Handler + 44
        0x10079662:    2001        .       MOVS     r0,#1
        0x10079664:    f000fd8c    ....    BL       clear_TMR_INT_status_bit ; 0x1007a180
        0x10079668:    6860        `h      LDR      r0,[r4,#4]
        0x1007966a:    e8bd4010    ...@    POP      {r4,lr}
        0x1007966e:    4700        .G      BX       r0
        0x10079670:    bd10        ..      POP      {r4,pc}
    $d
        0x10079672:    0000        ..      DCW    0
        0x10079674:    83050000    ....    DCD    2198142976
        0x10079678:    20000588    ...     DCD    536872328
    $t
    i.GPT_init
    GPT_init
        0x1007967c:    e92d41f0    -..A    PUSH     {r4-r8,lr}
        0x10079680:    0005        ..      MOVS     r5,r0
        0x10079682:    460e        .F      MOV      r6,r1
        0x10079684:    f04f0001    O...    MOV      r0,#1
        0x10079688:    4c22        "L      LDR      r4,[pc,#136] ; [0x10079714] = 0x83050000
        0x1007968a:    4690        .F      MOV      r8,r2
        0x1007968c:    eb000746    ..F.    ADD      r7,r0,r6,LSL #1
        0x10079690:    d00b        ..      BEQ      0x100796aa ; GPT_init + 46
        0x10079692:    2d01        .-      CMP      r5,#1
        0x10079694:    d009        ..      BEQ      0x100796aa ; GPT_init + 46
        0x10079696:    2d02        .-      CMP      r5,#2
        0x10079698:    d037        7.      BEQ      0x1007970a ; GPT_init + 142
        0x1007969a:    2d04        .-      CMP      r5,#4
        0x1007969c:    d018        ..      BEQ      0x100796d0 ; GPT_init + 84
        0x1007969e:    2295        ."      MOVS     r2,#0x95
        0x100796a0:    a11d        ..      ADR      r1,{pc}+0x78 ; 0x10079718
        0x100796a2:    a02a        *.      ADR      r0,{pc}+0xaa ; 0x1007974c
        0x100796a4:    f000f8ea    ....    BL       __0printf ; 0x1007987c
        0x100796a8:    e7fe        ..      B        0x100796a8 ; GPT_init + 44
        0x100796aa:    4932        2I      LDR      r1,[pc,#200] ; [0x10079774] = 0x10079645
        0x100796ac:    2018        .       MOVS     r0,#0x18
        0x100796ae:    f001f8dd    ....    BL       hal_nvic_register_isr_handler ; 0x1007a86c
        0x100796b2:    2105        .!      MOVS     r1,#5
        0x100796b4:    2018        .       MOVS     r0,#0x18
        0x100796b6:    f001f903    ....    BL       hal_nvic_set_priority ; 0x1007a8c0
        0x100796ba:    2018        .       MOVS     r0,#0x18
        0x100796bc:    f001f8c4    ....    BL       hal_nvic_enable_irq ; 0x1007a848
        0x100796c0:    482d        -H      LDR      r0,[pc,#180] ; [0x10079778] = 0x20000588
        0x100796c2:    b165        e.      CBZ      r5,0x100796de ; GPT_init + 98
        0x100796c4:    2d01        .-      CMP      r5,#1
        0x100796c6:    d015        ..      BEQ      0x100796f4 ; GPT_init + 120
        0x100796c8:    2d02        .-      CMP      r5,#2
        0x100796ca:    d01e        ..      BEQ      0x1007970a ; GPT_init + 142
        0x100796cc:    2d04        .-      CMP      r5,#4
        0x100796ce:    d104        ..      BNE      0x100796da ; GPT_init + 94
        0x100796d0:    6e20         n      LDR      r0,[r4,#0x60]
        0x100796d2:    4338        8C      ORRS     r0,r0,r7
        0x100796d4:    6620         f      STR      r0,[r4,#0x60]
        0x100796d6:    2000        .       MOVS     r0,#0
        0x100796d8:    6660        `f      STR      r0,[r4,#0x64]
        0x100796da:    e8bd81f0    ....    POP      {r4-r8,pc}
        0x100796de:    f8c08000    ....    STR      r8,[r0,#0]
        0x100796e2:    6860        `h      LDR      r0,[r4,#4]
        0x100796e4:    f0400001    @...    ORR      r0,r0,#1
        0x100796e8:    6060        ``      STR      r0,[r4,#4]
        0x100796ea:    6920         i      LDR      r0,[r4,#0x10]
        0x100796ec:    ea400086    @...    ORR      r0,r0,r6,LSL #2
        0x100796f0:    6120         a      STR      r0,[r4,#0x10]
        0x100796f2:    e7f2        ..      B        0x100796da ; GPT_init + 94
        0x100796f4:    f8c08004    ....    STR      r8,[r0,#4]
        0x100796f8:    6860        `h      LDR      r0,[r4,#4]
        0x100796fa:    f0400002    @...    ORR      r0,r0,#2
        0x100796fe:    6060        ``      STR      r0,[r4,#4]
        0x10079700:    6a20         j      LDR      r0,[r4,#0x20]
        0x10079702:    ea400086    @...    ORR      r0,r0,r6,LSL #2
        0x10079706:    6220         b      STR      r0,[r4,#0x20]
        0x10079708:    e7e7        ..      B        0x100796da ; GPT_init + 94
        0x1007970a:    6b20         k      LDR      r0,[r4,#0x30]
        0x1007970c:    4338        8C      ORRS     r0,r0,r7
        0x1007970e:    6320         c      STR      r0,[r4,#0x30]
        0x10079710:    e7e3        ..      B        0x100796da ; GPT_init + 94
    $d
        0x10079712:    0000        ..      DCW    0
        0x10079714:    83050000    ....    DCD    2198142976
        0x10079718:    2e5c2e2e    ..\.    DCD    777793070
        0x1007971c:    2e2e5c2e    .\..    DCD    774790190
        0x10079720:    5c2e2e5c    \..\    DCD    1546530396
        0x10079724:    645c2e2e    ..\d    DCD    1683762734
        0x10079728:    65766972    rive    DCD    1702259058
        0x1007972c:    68635c72    r\ch    DCD    1751342194
        0x10079730:    6d5c7069    ip\m    DCD    1834774633
        0x10079734:    38363774    t768    DCD    943077236
        0x10079738:    72735c37    7\sr    DCD    1920162871
        0x1007973c:    6f635c63    c\co    DCD    1868782691
        0x10079740:    6e6f6d6d    mmon    DCD    1852796269
        0x10079744:    7470675c    \gpt    DCD    1953523548
        0x10079748:    0000632e    .c..    DCD    25390
        0x1007974c:    45535341    ASSE    DCD    1163088705
        0x10079750:    202c5452    RT,     DCD    539776082
        0x10079754:    49465f5f    __FI    DCD    1229348703
        0x10079758:    5f5f454c    LE__    DCD    1600079180
        0x1007975c:    25203d20     = %    DCD    622869792
        0x10079760:    5f202c73    s, _    DCD    1595944051
        0x10079764:    4e494c5f    _LIN    DCD    1313426527
        0x10079768:    205f5f45    E__     DCD    543121221
        0x1007976c:    7525203d    = %u    DCD    1965367357
        0x10079770:    00000000    ....    DCD    0
        0x10079774:    10079645    E...    DCD    268932677
        0x10079778:    20000588    ...     DCD    536872328
    $t
    i.GPT_return_current_count
    GPT_return_current_count
        0x1007977c:    b510        ..      PUSH     {r4,lr}
        0x1007977e:    490b        .I      LDR      r1,[pc,#44] ; [0x100797ac] = 0x83050000
        0x10079780:    b188        ..      CBZ      r0,0x100797a6 ; GPT_return_current_count + 42
        0x10079782:    2801        .(      CMP      r0,#1
        0x10079784:    d00d        ..      BEQ      0x100797a2 ; GPT_return_current_count + 38
        0x10079786:    2802        .(      CMP      r0,#2
        0x10079788:    d009        ..      BEQ      0x1007979e ; GPT_return_current_count + 34
        0x1007978a:    2804        .(      CMP      r0,#4
        0x1007978c:    d005        ..      BEQ      0x1007979a ; GPT_return_current_count + 30
        0x1007978e:    22b1        ."      MOVS     r2,#0xb1
        0x10079790:    a107        ..      ADR      r1,{pc}+0x20 ; 0x100797b0
        0x10079792:    a014        ..      ADR      r0,{pc}+0x52 ; 0x100797e4
        0x10079794:    f000f872    ..r.    BL       __0printf ; 0x1007987c
        0x10079798:    e7fe        ..      B        0x10079798 ; GPT_return_current_count + 28
        0x1007979a:    6e88        .n      LDR      r0,[r1,#0x68]
        0x1007979c:    bd10        ..      POP      {r4,pc}
        0x1007979e:    6b48        Hk      LDR      r0,[r1,#0x34]
        0x100797a0:    bd10        ..      POP      {r4,pc}
        0x100797a2:    6c48        Hl      LDR      r0,[r1,#0x44]
        0x100797a4:    bd10        ..      POP      {r4,pc}
        0x100797a6:    6c08        .l      LDR      r0,[r1,#0x40]
        0x100797a8:    bd10        ..      POP      {r4,pc}
    $d
        0x100797aa:    0000        ..      DCW    0
        0x100797ac:    83050000    ....    DCD    2198142976
        0x100797b0:    2e5c2e2e    ..\.    DCD    777793070
        0x100797b4:    2e2e5c2e    .\..    DCD    774790190
        0x100797b8:    5c2e2e5c    \..\    DCD    1546530396
        0x100797bc:    645c2e2e    ..\d    DCD    1683762734
        0x100797c0:    65766972    rive    DCD    1702259058
        0x100797c4:    68635c72    r\ch    DCD    1751342194
        0x100797c8:    6d5c7069    ip\m    DCD    1834774633
        0x100797cc:    38363774    t768    DCD    943077236
        0x100797d0:    72735c37    7\sr    DCD    1920162871
        0x100797d4:    6f635c63    c\co    DCD    1868782691
        0x100797d8:    6e6f6d6d    mmon    DCD    1852796269
        0x100797dc:    7470675c    \gpt    DCD    1953523548
        0x100797e0:    0000632e    .c..    DCD    25390
        0x100797e4:    45535341    ASSE    DCD    1163088705
        0x100797e8:    202c5452    RT,     DCD    539776082
        0x100797ec:    49465f5f    __FI    DCD    1229348703
        0x100797f0:    5f5f454c    LE__    DCD    1600079180
        0x100797f4:    25203d20     = %    DCD    622869792
        0x100797f8:    5f202c73    s, _    DCD    1595944051
        0x100797fc:    4e494c5f    _LIN    DCD    1313426527
        0x10079800:    205f5f45    E__     DCD    543121221
        0x10079804:    7525203d    = %u    DCD    1965367357
        0x10079808:    00000000    ....    DCD    0
    $t
    i.NVIC_ClearPendingIRQ
    NVIC_ClearPendingIRQ
        0x1007980c:    f000021f    ....    AND      r2,r0,#0x1f
        0x10079810:    2101        .!      MOVS     r1,#1
        0x10079812:    4091        .@      LSLS     r1,r1,r2
        0x10079814:    0940        @.      LSRS     r0,r0,#5
        0x10079816:    0080        ..      LSLS     r0,r0,#2
        0x10079818:    f10020e0    ...     ADD      r0,r0,#0xe000e000
        0x1007981c:    f8c01280    ....    STR      r1,[r0,#0x280]
        0x10079820:    4770        pG      BX       lr
    i.SysTick_Set
    SysTick_Set
        0x10079822:    1e40        @.      SUBS     r0,r0,#1
        0x10079824:    f1b07f80    ....    CMP      r0,#0x1000000
        0x10079828:    d301        ..      BCC      0x1007982e ; SysTick_Set + 12
        0x1007982a:    2001        .       MOVS     r0,#1
        0x1007982c:    4770        pG      BX       lr
        0x1007982e:    f04f21e0    O..!    MOV      r1,#0xe000e000
        0x10079832:    690a        .i      LDR      r2,[r1,#0x10]
        0x10079834:    690b        .i      LDR      r3,[r1,#0x10]
        0x10079836:    f0230303    #...    BIC      r3,r3,#3
        0x1007983a:    610b        .a      STR      r3,[r1,#0x10]
        0x1007983c:    6148        Ha      STR      r0,[r1,#0x14]
        0x1007983e:    2000        .       MOVS     r0,#0
        0x10079840:    6188        .a      STR      r0,[r1,#0x18]
        0x10079842:    610a        .a      STR      r2,[r1,#0x10]
        0x10079844:    4770        pG      BX       lr
        0x10079846:    0000        ..      MOVS     r0,r0
    i.SystemCoreClockUpdate
    SystemCoreClockUpdate
        0x10079848:    b510        ..      PUSH     {r4,lr}
        0x1007984a:    f001fb23    ..#.    BL       top_mcu_freq_get ; 0x1007ae94
        0x1007984e:    4901        .I      LDR      r1,[pc,#4] ; [0x10079854] = 0x200001cc
        0x10079850:    6008        .`      STR      r0,[r1,#0]
        0x10079852:    bd10        ..      POP      {r4,pc}
    $d
        0x10079854:    200001cc    ...     DCD    536871372
    $t
    i.SystemInit
    SystemInit
        0x10079858:    4807        .H      LDR      r0,[pc,#28] ; [0x10079878] = 0xe000ed88
        0x1007985a:    6801        .h      LDR      r1,[r0,#0]
        0x1007985c:    f4410170    A.p.    ORR      r1,r1,#0xf00000
        0x10079860:    6001        .`      STR      r1,[r0,#0]
        0x10079862:    4905        .I      LDR      r1,[pc,#20] ; [0x10079878] = 0xe000ed88
        0x10079864:    0680        ..      LSLS     r0,r0,#26
        0x10079866:    3980        .9      SUBS     r1,r1,#0x80
        0x10079868:    6008        .`      STR      r0,[r1,#0]
        0x1007986a:    4803        .H      LDR      r0,[pc,#12] ; [0x10079878] = 0xe000ed88
        0x1007986c:    3864        d8      SUBS     r0,r0,#0x64
        0x1007986e:    6801        .h      LDR      r1,[r0,#0]
        0x10079870:    f44121e0    A..!    ORR      r1,r1,#0x70000
        0x10079874:    6001        .`      STR      r1,[r0,#0]
        0x10079876:    4770        pG      BX       lr
    $d
        0x10079878:    e000ed88    ....    DCD    3758157192
    $t
    i.__0printf
    __0printf
    __1printf
    __2printf
    __c89printf
    printf
        0x1007987c:    b40f        ..      PUSH     {r0-r3}
        0x1007987e:    4b05        .K      LDR      r3,[pc,#20] ; [0x10079894] = 0x1007a20d
        0x10079880:    b510        ..      PUSH     {r4,lr}
        0x10079882:    a903        ..      ADD      r1,sp,#0xc
        0x10079884:    4a04        .J      LDR      r2,[pc,#16] ; [0x10079898] = 0x200001d4
        0x10079886:    9802        ..      LDR      r0,[sp,#8]
        0x10079888:    f000f8e2    ....    BL       _printf_core ; 0x10079a50
        0x1007988c:    bc10        ..      POP      {r4}
        0x1007988e:    f85dfb14    ]...    LDR      pc,[sp],#0x14
    $d
        0x10079892:    0000        ..      DCW    0
        0x10079894:    1007a20d    ....    DCD    268935693
        0x10079898:    200001d4    ...     DCD    536871380
    $t
    i.__0vprintf
    __0vprintf
    __1vprintf
    __2vprintf
    __c89vprintf
    vprintf
        0x1007989c:    4b01        .K      LDR      r3,[pc,#4] ; [0x100798a4] = 0x1007a20d
        0x1007989e:    4a02        .J      LDR      r2,[pc,#8] ; [0x100798a8] = 0x200001d4
        0x100798a0:    f000b8d6    ....    B.W      _printf_core ; 0x10079a50
    $d
        0x100798a4:    1007a20d    ....    DCD    268935693
        0x100798a8:    200001d4    ...     DCD    536871380
    $t
    i.__scatterload_copy
    __scatterload_copy
        0x100798ac:    e002        ..      B        0x100798b4 ; __scatterload_copy + 8
        0x100798ae:    c808        ..      LDM      r0!,{r3}
        0x100798b0:    1f12        ..      SUBS     r2,r2,#4
        0x100798b2:    c108        ..      STM      r1!,{r3}
        0x100798b4:    2a00        .*      CMP      r2,#0
        0x100798b6:    d1fa        ..      BNE      0x100798ae ; __scatterload_copy + 2
        0x100798b8:    4770        pG      BX       lr
    i.__scatterload_null
    __scatterload_null
        0x100798ba:    4770        pG      BX       lr
    i.__scatterload_zeroinit
    __scatterload_zeroinit
        0x100798bc:    2000        .       MOVS     r0,#0
        0x100798be:    e001        ..      B        0x100798c4 ; __scatterload_zeroinit + 8
        0x100798c0:    c101        ..      STM      r1!,{r0}
        0x100798c2:    1f12        ..      SUBS     r2,r2,#4
        0x100798c4:    2a00        .*      CMP      r2,#0
        0x100798c6:    d1fb        ..      BNE      0x100798c0 ; __scatterload_zeroinit + 4
        0x100798c8:    4770        pG      BX       lr
        0x100798ca:    0000        ..      MOVS     r0,r0
    i._fp_digits
    _fp_digits
        0x100798cc:    e92d5fff    -.._    PUSH     {r0-r12,lr}
        0x100798d0:    b082        ..      SUB      sp,sp,#8
        0x100798d2:    2100        .!      MOVS     r1,#0
        0x100798d4:    e9dd3004    ...0    LDRD     r3,r0,[sp,#0x10]
        0x100798d8:    0d02        ..      LSRS     r2,r0,#20
        0x100798da:    f8ddb040    ..@.    LDR      r11,[sp,#0x40]
        0x100798de:    4303        .C      ORRS     r3,r3,r0
        0x100798e0:    d018        ..      BEQ      0x10079914 ; _fp_digits + 72
        0x100798e2:    f6445010    D..P    MOV      r0,#0x4d10
        0x100798e6:    f2a232ff    ...2    SUB      r2,r2,#0x3ff
        0x100798ea:    4342        BC      MULS     r2,r0,r2
        0x100798ec:    1415        ..      ASRS     r5,r2,#16
        0x100798ee:    9811        ..      LDR      r0,[sp,#0x44]
        0x100798f0:    2801        .(      CMP      r0,#1
        0x100798f2:    d01f        ..      BEQ      0x10079934 ; _fp_digits + 104
        0x100798f4:    eba5000b    ....    SUB      r0,r5,r11
        0x100798f8:    1c40        @.      ADDS     r0,r0,#1
        0x100798fa:    ea5f0a00    _...    MOVS     r10,r0
        0x100798fe:    f04f0600    O...    MOV      r6,#0
        0x10079902:    4f4e        NO      LDR      r7,[pc,#312] ; [0x10079a3c] = 0x40140000
        0x10079904:    f8df9138    ..8.    LDR      r9,[pc,#312] ; [0x10079a40] = 0x3ff00000
        0x10079908:    46b0        .F      MOV      r8,r6
        0x1007990a:    4650        PF      MOV      r0,r10
        0x1007990c:    d515        ..      BPL      0x1007993a ; _fp_digits + 110
        0x1007990e:    f1ca0400    ....    RSB      r4,r10,#0
        0x10079912:    e013        ..      B        0x1007993c ; _fp_digits + 112
        0x10079914:    9811        ..      LDR      r0,[sp,#0x44]
        0x10079916:    2401        .$      MOVS     r4,#1
        0x10079918:    a34a        J.      ADR      r3,{pc}+0x12c ; 0x10079a44
        0x1007991a:    2801        .(      CMP      r0,#1
        0x1007991c:    d101        ..      BNE      0x10079922 ; _fp_digits + 86
        0x1007991e:    ea6f010b    o...    MVN      r1,r11
        0x10079922:    9802        ..      LDR      r0,[sp,#8]
        0x10079924:    9a11        ..      LDR      r2,[sp,#0x44]
        0x10079926:    e9c03100    ...1    STRD     r3,r1,[r0,#0]
        0x1007992a:    e9c04202    ...B    STRD     r4,r2,[r0,#8]
        0x1007992e:    b006        ..      ADD      sp,sp,#0x18
        0x10079930:    e8bd9ff0    ....    POP      {r4-r12,pc}
        0x10079934:    f1cb0000    ....    RSB      r0,r11,#0
        0x10079938:    e7df        ..      B        0x100798fa ; _fp_digits + 46
        0x1007993a:    4604        .F      MOV      r4,r0
        0x1007993c:    2100        .!      MOVS     r1,#0
        0x1007993e:    4a40        @J      LDR      r2,[pc,#256] ; [0x10079a40] = 0x3ff00000
        0x10079940:    1849        I.      ADDS     r1,r1,r1
        0x10079942:    eb425004    B..P    ADC      r0,r2,r4,LSL #20
        0x10079946:    e9cd1000    ....    STRD     r1,r0,[sp,#0]
        0x1007994a:    e012        ..      B        0x10079972 ; _fp_digits + 166
        0x1007994c:    07e0        ..      LSLS     r0,r4,#31
        0x1007994e:    d007        ..      BEQ      0x10079960 ; _fp_digits + 148
        0x10079950:    4632        2F      MOV      r2,r6
        0x10079952:    463b        ;F      MOV      r3,r7
        0x10079954:    4640        @F      MOV      r0,r8
        0x10079956:    4649        IF      MOV      r1,r9
        0x10079958:    f7fffc8a    ....    BL       __aeabi_dmul ; 0x10079270
        0x1007995c:    4680        .F      MOV      r8,r0
        0x1007995e:    4689        .F      MOV      r9,r1
        0x10079960:    4632        2F      MOV      r2,r6
        0x10079962:    463b        ;F      MOV      r3,r7
        0x10079964:    4610        .F      MOV      r0,r2
        0x10079966:    4619        .F      MOV      r1,r3
        0x10079968:    f7fffc82    ....    BL       __aeabi_dmul ; 0x10079270
        0x1007996c:    4606        .F      MOV      r6,r0
        0x1007996e:    460f        .F      MOV      r7,r1
        0x10079970:    1064        d.      ASRS     r4,r4,#1
        0x10079972:    2c00        .,      CMP      r4,#0
        0x10079974:    d1ea        ..      BNE      0x1007994c ; _fp_digits + 128
        0x10079976:    e9dd0104    ....    LDRD     r0,r1,[sp,#0x10]
        0x1007997a:    e9dd2300    ...#    LDRD     r2,r3,[sp,#0]
        0x1007997e:    f1ba0f00    ....    CMP      r10,#0
        0x10079982:    da06        ..      BGE      0x10079992 ; _fp_digits + 198
        0x10079984:    f7fffc74    ..t.    BL       __aeabi_dmul ; 0x10079270
        0x10079988:    4642        BF      MOV      r2,r8
        0x1007998a:    464b        KF      MOV      r3,r9
        0x1007998c:    f7fffc70    ..p.    BL       __aeabi_dmul ; 0x10079270
        0x10079990:    e005        ..      B        0x1007999e ; _fp_digits + 210
        0x10079992:    f7fffcdf    ....    BL       __aeabi_ddiv ; 0x10079354
        0x10079996:    4642        BF      MOV      r2,r8
        0x10079998:    464b        KF      MOV      r3,r9
        0x1007999a:    f7fffcdb    ....    BL       __aeabi_ddiv ; 0x10079354
        0x1007999e:    4604        .F      MOV      r4,r0
        0x100799a0:    460e        .F      MOV      r6,r1
        0x100799a2:    2200        ."      MOVS     r2,#0
        0x100799a4:    4b28        (K      LDR      r3,[pc,#160] ; [0x10079a48] = 0x43f00000
        0x100799a6:    f7fffd5d    ..].    BL       __aeabi_cdrcmple ; 0x10079464
        0x100799aa:    d803        ..      BHI      0x100799b4 ; _fp_digits + 232
        0x100799ac:    f04f30ff    O..0    MOV      r0,#0xffffffff
        0x100799b0:    4601        .F      MOV      r1,r0
        0x100799b2:    e007        ..      B        0x100799c4 ; _fp_digits + 248
        0x100799b4:    2200        ."      MOVS     r2,#0
        0x100799b6:    4b25        %K      LDR      r3,[pc,#148] ; [0x10079a4c] = 0x3fe00000
        0x100799b8:    4620         F      MOV      r0,r4
        0x100799ba:    4631        1F      MOV      r1,r6
        0x100799bc:    f7fffbb1    ....    BL       __I$use$fp ; 0x10079122
        0x100799c0:    f7fffd37    ..7.    BL       __aeabi_d2ulz ; 0x10079432
        0x100799c4:    2410        .$      MOVS     r4,#0x10
        0x100799c6:    e009        ..      B        0x100799dc ; _fp_digits + 272
        0x100799c8:    2c00        .,      CMP      r4,#0
        0x100799ca:    db0a        ..      BLT      0x100799e2 ; _fp_digits + 278
        0x100799cc:    220a        ."      MOVS     r2,#0xa
        0x100799ce:    2300        .#      MOVS     r3,#0
        0x100799d0:    f7fffb76    ..v.    BL       __aeabi_uldivmod ; 0x100790c0
        0x100799d4:    9b03        ..      LDR      r3,[sp,#0xc]
        0x100799d6:    3230        02      ADDS     r2,r2,#0x30
        0x100799d8:    551a        .U      STRB     r2,[r3,r4]
        0x100799da:    1e64        d.      SUBS     r4,r4,#1
        0x100799dc:    ea500201    P...    ORRS     r2,r0,r1
        0x100799e0:    d1f2        ..      BNE      0x100799c8 ; _fp_digits + 252
        0x100799e2:    1c64        d.      ADDS     r4,r4,#1
        0x100799e4:    9a03        ..      LDR      r2,[sp,#0xc]
        0x100799e6:    f1c40311    ....    RSB      r3,r4,#0x11
        0x100799ea:    4414        .D      ADD      r4,r4,r2
        0x100799ec:    9a11        ..      LDR      r2,[sp,#0x44]
        0x100799ee:    2a01        .*      CMP      r2,#1
        0x100799f0:    d003        ..      BEQ      0x100799fa ; _fp_digits + 302
        0x100799f2:    2201        ."      MOVS     r2,#1
        0x100799f4:    4308        .C      ORRS     r0,r0,r1
        0x100799f6:    d10d        ..      BNE      0x10079a14 ; _fp_digits + 328
        0x100799f8:    e00a        ..      B        0x10079a10 ; _fp_digits + 324
        0x100799fa:    4308        .C      ORRS     r0,r0,r1
        0x100799fc:    d004        ..      BEQ      0x10079a08 ; _fp_digits + 316
        0x100799fe:    2000        .       MOVS     r0,#0
        0x10079a00:    f04f0b11    O...    MOV      r11,#0x11
        0x10079a04:    9011        ..      STR      r0,[sp,#0x44]
        0x10079a06:    e772        r.      B        0x100798ee ; _fp_digits + 34
        0x10079a08:    eba3050b    ....    SUB      r5,r3,r11
        0x10079a0c:    1e6d        m.      SUBS     r5,r5,#1
        0x10079a0e:    e00d        ..      B        0x10079a2c ; _fp_digits + 352
        0x10079a10:    455b        [E      CMP      r3,r11
        0x10079a12:    dd04        ..      BLE      0x10079a1e ; _fp_digits + 338
        0x10079a14:    f04f0200    O...    MOV      r2,#0
        0x10079a18:    f1050501    ....    ADD      r5,r5,#1
        0x10079a1c:    e004        ..      B        0x10079a28 ; _fp_digits + 348
        0x10079a1e:    da03        ..      BGE      0x10079a28 ; _fp_digits + 348
        0x10079a20:    f04f0200    O...    MOV      r2,#0
        0x10079a24:    f1a50501    ....    SUB      r5,r5,#1
        0x10079a28:    2a00        .*      CMP      r2,#0
        0x10079a2a:    d0ec        ..      BEQ      0x10079a06 ; _fp_digits + 314
        0x10079a2c:    9802        ..      LDR      r0,[sp,#8]
        0x10079a2e:    9911        ..      LDR      r1,[sp,#0x44]
        0x10079a30:    e9c03102    ...1    STRD     r3,r1,[r0,#8]
        0x10079a34:    e9c04500    ...E    STRD     r4,r5,[r0,#0]
        0x10079a38:    e779        y.      B        0x1007992e ; _fp_digits + 98
    $d
        0x10079a3a:    0000        ..      DCW    0
        0x10079a3c:    40140000    ...@    DCD    1075052544
        0x10079a40:    3ff00000    ...?    DCD    1072693248
        0x10079a44:    00000030    0...    DCD    48
        0x10079a48:    43f00000    ...C    DCD    1139802112
        0x10079a4c:    3fe00000    ...?    DCD    1071644672
    $t
    i._printf_core
    _printf_core
        0x10079a50:    e92d4fff    -..O    PUSH     {r0-r11,lr}
        0x10079a54:    b095        ..      SUB      sp,sp,#0x54
        0x10079a56:    469b        .F      MOV      r11,r3
        0x10079a58:    4689        .F      MOV      r9,r1
        0x10079a5a:    4606        .F      MOV      r6,r0
        0x10079a5c:    2500        .%      MOVS     r5,#0
        0x10079a5e:    e20f        ..      B        0x10079e80 ; _printf_core + 1072
        0x10079a60:    2825        %(      CMP      r0,#0x25
        0x10079a62:    d177        w.      BNE      0x10079b54 ; _printf_core + 260
        0x10079a64:    2400        .$      MOVS     r4,#0
        0x10079a66:    4627        'F      MOV      r7,r4
        0x10079a68:    4af8        .J      LDR      r2,[pc,#992] ; [0x10079e4c] = 0x12809
        0x10079a6a:    2101        .!      MOVS     r1,#1
        0x10079a6c:    9405        ..      STR      r4,[sp,#0x14]
        0x10079a6e:    e000        ..      B        0x10079a72 ; _printf_core + 34
        0x10079a70:    4304        .C      ORRS     r4,r4,r0
        0x10079a72:    f8163f01    ...?    LDRB     r3,[r6,#1]!
        0x10079a76:    3b20         ;      SUBS     r3,r3,#0x20
        0x10079a78:    fa01f003    ....    LSL      r0,r1,r3
        0x10079a7c:    4210        .B      TST      r0,r2
        0x10079a7e:    d1f7        ..      BNE      0x10079a70 ; _printf_core + 32
        0x10079a80:    7830        0x      LDRB     r0,[r6,#0]
        0x10079a82:    282a        *(      CMP      r0,#0x2a
        0x10079a84:    d011        ..      BEQ      0x10079aaa ; _printf_core + 90
        0x10079a86:    f06f032f    o./.    MVN      r3,#0x2f
        0x10079a8a:    7830        0x      LDRB     r0,[r6,#0]
        0x10079a8c:    f1a00230    ..0.    SUB      r2,r0,#0x30
        0x10079a90:    2a09        .*      CMP      r2,#9
        0x10079a92:    d816        ..      BHI      0x10079ac2 ; _printf_core + 114
        0x10079a94:    9a05        ..      LDR      r2,[sp,#0x14]
        0x10079a96:    f0440402    D...    ORR      r4,r4,#2
        0x10079a9a:    eb020282    ....    ADD      r2,r2,r2,LSL #2
        0x10079a9e:    eb030242    ..B.    ADD      r2,r3,r2,LSL #1
        0x10079aa2:    4410        .D      ADD      r0,r0,r2
        0x10079aa4:    1c76        v.      ADDS     r6,r6,#1
        0x10079aa6:    9005        ..      STR      r0,[sp,#0x14]
        0x10079aa8:    e7ef        ..      B        0x10079a8a ; _printf_core + 58
        0x10079aaa:    f8592b04    Y..+    LDR      r2,[r9],#4
        0x10079aae:    9205        ..      STR      r2,[sp,#0x14]
        0x10079ab0:    2a00        .*      CMP      r2,#0
        0x10079ab2:    da03        ..      BGE      0x10079abc ; _printf_core + 108
        0x10079ab4:    4250        PB      RSBS     r0,r2,#0
        0x10079ab6:    f4445400    D..T    ORR      r4,r4,#0x2000
        0x10079aba:    9005        ..      STR      r0,[sp,#0x14]
        0x10079abc:    f0440402    D...    ORR      r4,r4,#2
        0x10079ac0:    1c76        v.      ADDS     r6,r6,#1
        0x10079ac2:    7830        0x      LDRB     r0,[r6,#0]
        0x10079ac4:    282e        .(      CMP      r0,#0x2e
        0x10079ac6:    d116        ..      BNE      0x10079af6 ; _printf_core + 166
        0x10079ac8:    f8160f01    ....    LDRB     r0,[r6,#1]!
        0x10079acc:    f0440404    D...    ORR      r4,r4,#4
        0x10079ad0:    282a        *(      CMP      r0,#0x2a
        0x10079ad2:    d00d        ..      BEQ      0x10079af0 ; _printf_core + 160
        0x10079ad4:    f06f022f    o./.    MVN      r2,#0x2f
        0x10079ad8:    7830        0x      LDRB     r0,[r6,#0]
        0x10079ada:    f1a00330    ..0.    SUB      r3,r0,#0x30
        0x10079ade:    2b09        .+      CMP      r3,#9
        0x10079ae0:    d809        ..      BHI      0x10079af6 ; _printf_core + 166
        0x10079ae2:    eb070387    ....    ADD      r3,r7,r7,LSL #2
        0x10079ae6:    eb020343    ..C.    ADD      r3,r2,r3,LSL #1
        0x10079aea:    18c7        ..      ADDS     r7,r0,r3
        0x10079aec:    1c76        v.      ADDS     r6,r6,#1
        0x10079aee:    e7f3        ..      B        0x10079ad8 ; _printf_core + 136
        0x10079af0:    f8597b04    Y..{    LDR      r7,[r9],#4
        0x10079af4:    1c76        v.      ADDS     r6,r6,#1
        0x10079af6:    7830        0x      LDRB     r0,[r6,#0]
        0x10079af8:    286c        l(      CMP      r0,#0x6c
        0x10079afa:    d00f        ..      BEQ      0x10079b1c ; _printf_core + 204
        0x10079afc:    dc06        ..      BGT      0x10079b0c ; _printf_core + 188
        0x10079afe:    284c        L(      CMP      r0,#0x4c
        0x10079b00:    d017        ..      BEQ      0x10079b32 ; _printf_core + 226
        0x10079b02:    2868        h(      CMP      r0,#0x68
        0x10079b04:    d00d        ..      BEQ      0x10079b22 ; _printf_core + 210
        0x10079b06:    286a        j(      CMP      r0,#0x6a
        0x10079b08:    d114        ..      BNE      0x10079b34 ; _printf_core + 228
        0x10079b0a:    e004        ..      B        0x10079b16 ; _printf_core + 198
        0x10079b0c:    2874        t(      CMP      r0,#0x74
        0x10079b0e:    d010        ..      BEQ      0x10079b32 ; _printf_core + 226
        0x10079b10:    287a        z(      CMP      r0,#0x7a
        0x10079b12:    d10f        ..      BNE      0x10079b34 ; _printf_core + 228
        0x10079b14:    e00d        ..      B        0x10079b32 ; _printf_core + 226
        0x10079b16:    f4441400    D...    ORR      r4,r4,#0x200000
        0x10079b1a:    e00a        ..      B        0x10079b32 ; _printf_core + 226
        0x10079b1c:    f4441480    D...    ORR      r4,r4,#0x100000
        0x10079b20:    e001        ..      B        0x10079b26 ; _printf_core + 214
        0x10079b22:    f4441440    D.@.    ORR      r4,r4,#0x300000
        0x10079b26:    7872        rx      LDRB     r2,[r6,#1]
        0x10079b28:    4282        .B      CMP      r2,r0
        0x10079b2a:    d102        ..      BNE      0x10079b32 ; _printf_core + 226
        0x10079b2c:    f5041480    ....    ADD      r4,r4,#0x100000
        0x10079b30:    1c76        v.      ADDS     r6,r6,#1
        0x10079b32:    1c76        v.      ADDS     r6,r6,#1
        0x10079b34:    7830        0x      LDRB     r0,[r6,#0]
        0x10079b36:    2866        f(      CMP      r0,#0x66
        0x10079b38:    d00b        ..      BEQ      0x10079b52 ; _printf_core + 258
        0x10079b3a:    dc13        ..      BGT      0x10079b64 ; _printf_core + 276
        0x10079b3c:    2858        X(      CMP      r0,#0x58
        0x10079b3e:    d077        w.      BEQ      0x10079c30 ; _printf_core + 480
        0x10079b40:    dc09        ..      BGT      0x10079b56 ; _printf_core + 262
        0x10079b42:    2800        .(      CMP      r0,#0
        0x10079b44:    d075        u.      BEQ      0x10079c32 ; _printf_core + 482
        0x10079b46:    2845        E(      CMP      r0,#0x45
        0x10079b48:    d0f6        ..      BEQ      0x10079b38 ; _printf_core + 232
        0x10079b4a:    2846        F(      CMP      r0,#0x46
        0x10079b4c:    d0f4        ..      BEQ      0x10079b38 ; _printf_core + 232
        0x10079b4e:    2847        G(      CMP      r0,#0x47
        0x10079b50:    d11a        ..      BNE      0x10079b88 ; _printf_core + 312
        0x10079b52:    e19d        ..      B        0x10079e90 ; _printf_core + 1088
        0x10079b54:    e018        ..      B        0x10079b88 ; _printf_core + 312
        0x10079b56:    2863        c(      CMP      r0,#0x63
        0x10079b58:    d035        5.      BEQ      0x10079bc6 ; _printf_core + 374
        0x10079b5a:    2864        d(      CMP      r0,#0x64
        0x10079b5c:    d079        y.      BEQ      0x10079c52 ; _printf_core + 514
        0x10079b5e:    2865        e(      CMP      r0,#0x65
        0x10079b60:    d112        ..      BNE      0x10079b88 ; _printf_core + 312
        0x10079b62:    e195        ..      B        0x10079e90 ; _printf_core + 1088
        0x10079b64:    2870        p(      CMP      r0,#0x70
        0x10079b66:    d073        s.      BEQ      0x10079c50 ; _printf_core + 512
        0x10079b68:    dc08        ..      BGT      0x10079b7c ; _printf_core + 300
        0x10079b6a:    2867        g(      CMP      r0,#0x67
        0x10079b6c:    d0f1        ..      BEQ      0x10079b52 ; _printf_core + 258
        0x10079b6e:    2869        i(      CMP      r0,#0x69
        0x10079b70:    d06f        o.      BEQ      0x10079c52 ; _printf_core + 514
        0x10079b72:    286e        n(      CMP      r0,#0x6e
        0x10079b74:    d00d        ..      BEQ      0x10079b92 ; _printf_core + 322
        0x10079b76:    286f        o(      CMP      r0,#0x6f
        0x10079b78:    d106        ..      BNE      0x10079b88 ; _printf_core + 312
        0x10079b7a:    e0b5        ..      B        0x10079ce8 ; _printf_core + 664
        0x10079b7c:    2873        s(      CMP      r0,#0x73
        0x10079b7e:    d02c        ,.      BEQ      0x10079bda ; _printf_core + 394
        0x10079b80:    2875        u(      CMP      r0,#0x75
        0x10079b82:    d075        u.      BEQ      0x10079c70 ; _printf_core + 544
        0x10079b84:    2878        x(      CMP      r0,#0x78
        0x10079b86:    d074        t.      BEQ      0x10079c72 ; _printf_core + 546
        0x10079b88:    465a        ZF      MOV      r2,r11
        0x10079b8a:    9917        ..      LDR      r1,[sp,#0x5c]
        0x10079b8c:    4790        .G      BLX      r2
        0x10079b8e:    1c6d        m.      ADDS     r5,r5,#1
        0x10079b90:    e175        u.      B        0x10079e7e ; _printf_core + 1070
        0x10079b92:    f3c45002    ...P    UBFX     r0,r4,#20,#3
        0x10079b96:    2802        .(      CMP      r0,#2
        0x10079b98:    d009        ..      BEQ      0x10079bae ; _printf_core + 350
        0x10079b9a:    2803        .(      CMP      r0,#3
        0x10079b9c:    d00d        ..      BEQ      0x10079bba ; _printf_core + 362
        0x10079b9e:    f8d91000    ....    LDR      r1,[r9,#0]
        0x10079ba2:    2804        .(      CMP      r0,#4
        0x10079ba4:    d00d        ..      BEQ      0x10079bc2 ; _printf_core + 370
        0x10079ba6:    600d        .`      STR      r5,[r1,#0]
        0x10079ba8:    f1090904    ....    ADD      r9,r9,#4
        0x10079bac:    e167        g.      B        0x10079e7e ; _printf_core + 1070
        0x10079bae:    f8d91000    ....    LDR      r1,[r9,#0]
        0x10079bb2:    17ea        ..      ASRS     r2,r5,#31
        0x10079bb4:    e9c15200    ...R    STRD     r5,r2,[r1,#0]
        0x10079bb8:    e7f6        ..      B        0x10079ba8 ; _printf_core + 344
        0x10079bba:    f8d91000    ....    LDR      r1,[r9,#0]
        0x10079bbe:    800d        ..      STRH     r5,[r1,#0]
        0x10079bc0:    e7f2        ..      B        0x10079ba8 ; _printf_core + 344
        0x10079bc2:    700d        .p      STRB     r5,[r1,#0]
        0x10079bc4:    e7f0        ..      B        0x10079ba8 ; _printf_core + 344
        0x10079bc6:    f8191b04    ....    LDRB     r1,[r9],#4
        0x10079bca:    f88d1000    ....    STRB     r1,[sp,#0]
        0x10079bce:    2000        .       MOVS     r0,#0
        0x10079bd0:    f88d0001    ....    STRB     r0,[sp,#1]
        0x10079bd4:    46ea        .F      MOV      r10,sp
        0x10079bd6:    2001        .       MOVS     r0,#1
        0x10079bd8:    e003        ..      B        0x10079be2 ; _printf_core + 402
        0x10079bda:    f859ab04    Y...    LDR      r10,[r9],#4
        0x10079bde:    f04f30ff    O..0    MOV      r0,#0xffffffff
        0x10079be2:    0761        a.      LSLS     r1,r4,#29
        0x10079be4:    f04f0100    O...    MOV      r1,#0
        0x10079be8:    d402        ..      BMI      0x10079bf0 ; _printf_core + 416
        0x10079bea:    e00d        ..      B        0x10079c08 ; _printf_core + 440
        0x10079bec:    f1080101    ....    ADD      r1,r8,#1
        0x10079bf0:    4688        .F      MOV      r8,r1
        0x10079bf2:    42b9        .B      CMP      r1,r7
        0x10079bf4:    da0f        ..      BGE      0x10079c16 ; _printf_core + 454
        0x10079bf6:    4580        .E      CMP      r8,r0
        0x10079bf8:    dbf8        ..      BLT      0x10079bec ; _printf_core + 412
        0x10079bfa:    f81a1008    ....    LDRB     r1,[r10,r8]
        0x10079bfe:    2900        .)      CMP      r1,#0
        0x10079c00:    d1f4        ..      BNE      0x10079bec ; _printf_core + 412
        0x10079c02:    e008        ..      B        0x10079c16 ; _printf_core + 454
        0x10079c04:    f1080101    ....    ADD      r1,r8,#1
        0x10079c08:    4688        .F      MOV      r8,r1
        0x10079c0a:    4281        .B      CMP      r1,r0
        0x10079c0c:    dbfa        ..      BLT      0x10079c04 ; _printf_core + 436
        0x10079c0e:    f81a1008    ....    LDRB     r1,[r10,r8]
        0x10079c12:    2900        .)      CMP      r1,#0
        0x10079c14:    d1f6        ..      BNE      0x10079c04 ; _printf_core + 436
        0x10079c16:    9805        ..      LDR      r0,[sp,#0x14]
        0x10079c18:    465b        [F      MOV      r3,r11
        0x10079c1a:    eba00708    ....    SUB      r7,r0,r8
        0x10079c1e:    4621        !F      MOV      r1,r4
        0x10079c20:    4638        8F      MOV      r0,r7
        0x10079c22:    9a17        ..      LDR      r2,[sp,#0x5c]
        0x10079c24:    f000fa94    ....    BL       _printf_pre_padding ; 0x1007a150
        0x10079c28:    4428        (D      ADD      r0,r0,r5
        0x10079c2a:    eb000508    ....    ADD      r5,r0,r8
        0x10079c2e:    e007        ..      B        0x10079c40 ; _printf_core + 496
        0x10079c30:    e04d        M.      B        0x10079cce ; _printf_core + 638
        0x10079c32:    e129        ).      B        0x10079e88 ; _printf_core + 1080
        0x10079c34:    e00d        ..      B        0x10079c52 ; _printf_core + 514
        0x10079c36:    f81a0b01    ....    LDRB     r0,[r10],#1
        0x10079c3a:    465a        ZF      MOV      r2,r11
        0x10079c3c:    9917        ..      LDR      r1,[sp,#0x5c]
        0x10079c3e:    4790        .G      BLX      r2
        0x10079c40:    f1b80801    ....    SUBS     r8,r8,#1
        0x10079c44:    d2f7        ..      BCS      0x10079c36 ; _printf_core + 486
        0x10079c46:    465b        [F      MOV      r3,r11
        0x10079c48:    4621        !F      MOV      r1,r4
        0x10079c4a:    4638        8F      MOV      r0,r7
        0x10079c4c:    9a17        ..      LDR      r2,[sp,#0x5c]
        0x10079c4e:    e113        ..      B        0x10079e78 ; _printf_core + 1064
        0x10079c50:    e042        B.      B        0x10079cd8 ; _printf_core + 648
        0x10079c52:    220a        ."      MOVS     r2,#0xa
        0x10079c54:    9200        ..      STR      r2,[sp,#0]
        0x10079c56:    f3c45202    ...R    UBFX     r2,r4,#20,#3
        0x10079c5a:    f04f0a00    O...    MOV      r10,#0
        0x10079c5e:    2a02        .*      CMP      r2,#2
        0x10079c60:    d008        ..      BEQ      0x10079c74 ; _printf_core + 548
        0x10079c62:    f859cb04    Y...    LDR      r12,[r9],#4
        0x10079c66:    2a03        .*      CMP      r2,#3
        0x10079c68:    ea4f71ec    O..q    ASR      r1,r12,#31
        0x10079c6c:    d00a        ..      BEQ      0x10079c84 ; _printf_core + 564
        0x10079c6e:    e00d        ..      B        0x10079c8c ; _printf_core + 572
        0x10079c70:    e029        ).      B        0x10079cc6 ; _printf_core + 630
        0x10079c72:    e02a        *.      B        0x10079cca ; _printf_core + 634
        0x10079c74:    f1090107    ....    ADD      r1,r9,#7
        0x10079c78:    f0210207    !...    BIC      r2,r1,#7
        0x10079c7c:    e8f2c102    ....    LDRD     r12,r1,[r2],#8
        0x10079c80:    4691        .F      MOV      r9,r2
        0x10079c82:    e009        ..      B        0x10079c98 ; _printf_core + 584
        0x10079c84:    fa0ffc8c    ....    SXTH     r12,r12
        0x10079c88:    ea4f71ec    O..q    ASR      r1,r12,#31
        0x10079c8c:    2a04        .*      CMP      r2,#4
        0x10079c8e:    d103        ..      BNE      0x10079c98 ; _printf_core + 584
        0x10079c90:    fa4ffc8c    O...    SXTB     r12,r12
        0x10079c94:    ea4f71ec    O..q    ASR      r1,r12,#31
        0x10079c98:    2900        .)      CMP      r1,#0
        0x10079c9a:    da07        ..      BGE      0x10079cac ; _printf_core + 604
        0x10079c9c:    460a        .F      MOV      r2,r1
        0x10079c9e:    2100        .!      MOVS     r1,#0
        0x10079ca0:    f1dc0c00    ....    RSBS     r12,r12,#0
        0x10079ca4:    eb610102    a...    SBC      r1,r1,r2
        0x10079ca8:    222d        -"      MOVS     r2,#0x2d
        0x10079caa:    e002        ..      B        0x10079cb2 ; _printf_core + 610
        0x10079cac:    0522        ".      LSLS     r2,r4,#20
        0x10079cae:    d504        ..      BPL      0x10079cba ; _printf_core + 618
        0x10079cb0:    222b        +"      MOVS     r2,#0x2b
        0x10079cb2:    f88d2004    ...     STRB     r2,[sp,#4]
        0x10079cb6:    2201        ."      MOVS     r2,#1
        0x10079cb8:    e003        ..      B        0x10079cc2 ; _printf_core + 626
        0x10079cba:    07e2        ..      LSLS     r2,r4,#31
        0x10079cbc:    d001        ..      BEQ      0x10079cc2 ; _printf_core + 626
        0x10079cbe:    2220         "      MOVS     r2,#0x20
        0x10079cc0:    e7f7        ..      B        0x10079cb2 ; _printf_core + 610
        0x10079cc2:    4690        .F      MOV      r8,r2
        0x10079cc4:    e059        Y.      B        0x10079d7a ; _printf_core + 810
        0x10079cc6:    210a        .!      MOVS     r1,#0xa
        0x10079cc8:    e002        ..      B        0x10079cd0 ; _printf_core + 640
        0x10079cca:    2210        ."      MOVS     r2,#0x10
        0x10079ccc:    e00d        ..      B        0x10079cea ; _printf_core + 666
        0x10079cce:    2110        .!      MOVS     r1,#0x10
        0x10079cd0:    f04f0a00    O...    MOV      r10,#0
        0x10079cd4:    9100        ..      STR      r1,[sp,#0]
        0x10079cd6:    e00b        ..      B        0x10079cf0 ; _printf_core + 672
        0x10079cd8:    2210        ."      MOVS     r2,#0x10
        0x10079cda:    f04f0a00    O...    MOV      r10,#0
        0x10079cde:    f0440404    D...    ORR      r4,r4,#4
        0x10079ce2:    2708        .'      MOVS     r7,#8
        0x10079ce4:    9200        ..      STR      r2,[sp,#0]
        0x10079ce6:    e003        ..      B        0x10079cf0 ; _printf_core + 672
        0x10079ce8:    2208        ."      MOVS     r2,#8
        0x10079cea:    f04f0a00    O...    MOV      r10,#0
        0x10079cee:    9200        ..      STR      r2,[sp,#0]
        0x10079cf0:    f3c45202    ...R    UBFX     r2,r4,#20,#3
        0x10079cf4:    2a02        .*      CMP      r2,#2
        0x10079cf6:    d005        ..      BEQ      0x10079d04 ; _printf_core + 692
        0x10079cf8:    f859cb04    Y...    LDR      r12,[r9],#4
        0x10079cfc:    2100        .!      MOVS     r1,#0
        0x10079cfe:    2a03        .*      CMP      r2,#3
        0x10079d00:    d008        ..      BEQ      0x10079d14 ; _printf_core + 708
        0x10079d02:    e009        ..      B        0x10079d18 ; _printf_core + 712
        0x10079d04:    f1090107    ....    ADD      r1,r9,#7
        0x10079d08:    f0210207    !...    BIC      r2,r1,#7
        0x10079d0c:    e8f2c102    ....    LDRD     r12,r1,[r2],#8
        0x10079d10:    4691        .F      MOV      r9,r2
        0x10079d12:    e005        ..      B        0x10079d20 ; _printf_core + 720
        0x10079d14:    fa1ffc8c    ....    UXTH     r12,r12
        0x10079d18:    2a04        .*      CMP      r2,#4
        0x10079d1a:    d101        ..      BNE      0x10079d20 ; _printf_core + 720
        0x10079d1c:    f00c0cff    ....    AND      r12,r12,#0xff
        0x10079d20:    f04f0800    O...    MOV      r8,#0
        0x10079d24:    0722        ".      LSLS     r2,r4,#28
        0x10079d26:    d528        (.      BPL      0x10079d7a ; _printf_core + 810
        0x10079d28:    2870        p(      CMP      r0,#0x70
        0x10079d2a:    d006        ..      BEQ      0x10079d3a ; _printf_core + 746
        0x10079d2c:    9b00        ..      LDR      r3,[sp,#0]
        0x10079d2e:    f0830310    ....    EOR      r3,r3,#0x10
        0x10079d32:    ea53030a    S...    ORRS     r3,r3,r10
        0x10079d36:    d005        ..      BEQ      0x10079d44 ; _printf_core + 756
        0x10079d38:    e00e        ..      B        0x10079d58 ; _printf_core + 776
        0x10079d3a:    2240        @"      MOVS     r2,#0x40
        0x10079d3c:    f88d2004    ...     STRB     r2,[sp,#4]
        0x10079d40:    2201        ."      MOVS     r2,#1
        0x10079d42:    e008        ..      B        0x10079d56 ; _printf_core + 774
        0x10079d44:    ea5c0201    \...    ORRS     r2,r12,r1
        0x10079d48:    d006        ..      BEQ      0x10079d58 ; _printf_core + 776
        0x10079d4a:    2230        0"      MOVS     r2,#0x30
        0x10079d4c:    f88d2004    ...     STRB     r2,[sp,#4]
        0x10079d50:    f88d0005    ....    STRB     r0,[sp,#5]
        0x10079d54:    2202        ."      MOVS     r2,#2
        0x10079d56:    4690        .F      MOV      r8,r2
        0x10079d58:    9b00        ..      LDR      r3,[sp,#0]
        0x10079d5a:    f0830308    ....    EOR      r3,r3,#8
        0x10079d5e:    ea53030a    S...    ORRS     r3,r3,r10
        0x10079d62:    d10a        ..      BNE      0x10079d7a ; _printf_core + 810
        0x10079d64:    ea5c0201    \...    ORRS     r2,r12,r1
        0x10079d68:    d101        ..      BNE      0x10079d6e ; _printf_core + 798
        0x10079d6a:    0762        b.      LSLS     r2,r4,#29
        0x10079d6c:    d505        ..      BPL      0x10079d7a ; _printf_core + 810
        0x10079d6e:    2230        0"      MOVS     r2,#0x30
        0x10079d70:    f88d2004    ...     STRB     r2,[sp,#4]
        0x10079d74:    f04f0801    O...    MOV      r8,#1
        0x10079d78:    1e7f        ..      SUBS     r7,r7,#1
        0x10079d7a:    2858        X(      CMP      r0,#0x58
        0x10079d7c:    d004        ..      BEQ      0x10079d88 ; _printf_core + 824
        0x10079d7e:    a034        4.      ADR      r0,{pc}+0xd2 ; 0x10079e50
        0x10079d80:    9003        ..      STR      r0,[sp,#0xc]
        0x10079d82:    a80e        ..      ADD      r0,sp,#0x38
        0x10079d84:    9002        ..      STR      r0,[sp,#8]
        0x10079d86:    e00d        ..      B        0x10079da4 ; _printf_core + 852
        0x10079d88:    a036        6.      ADR      r0,{pc}+0xdc ; 0x10079e64
        0x10079d8a:    e7f9        ..      B        0x10079d80 ; _printf_core + 816
        0x10079d8c:    4653        SF      MOV      r3,r10
        0x10079d8e:    4660        `F      MOV      r0,r12
        0x10079d90:    9a00        ..      LDR      r2,[sp,#0]
        0x10079d92:    f7fff995    ....    BL       __aeabi_uldivmod ; 0x100790c0
        0x10079d96:    4684        .F      MOV      r12,r0
        0x10079d98:    9803        ..      LDR      r0,[sp,#0xc]
        0x10079d9a:    5c82        .\      LDRB     r2,[r0,r2]
        0x10079d9c:    9802        ..      LDR      r0,[sp,#8]
        0x10079d9e:    1e40        @.      SUBS     r0,r0,#1
        0x10079da0:    9002        ..      STR      r0,[sp,#8]
        0x10079da2:    7002        .p      STRB     r2,[r0,#0]
        0x10079da4:    ea5c0001    \...    ORRS     r0,r12,r1
        0x10079da8:    d1f0        ..      BNE      0x10079d8c ; _printf_core + 828
        0x10079daa:    9802        ..      LDR      r0,[sp,#8]
        0x10079dac:    a906        ..      ADD      r1,sp,#0x18
        0x10079dae:    1a08        ..      SUBS     r0,r1,r0
        0x10079db0:    f1000a20    .. .    ADD      r10,r0,#0x20
        0x10079db4:    0760        `.      LSLS     r0,r4,#29
        0x10079db6:    d502        ..      BPL      0x10079dbe ; _printf_core + 878
        0x10079db8:    f4243480    $..4    BIC      r4,r4,#0x10000
        0x10079dbc:    e000        ..      B        0x10079dc0 ; _printf_core + 880
        0x10079dbe:    2701        .'      MOVS     r7,#1
        0x10079dc0:    4557        WE      CMP      r7,r10
        0x10079dc2:    dd02        ..      BLE      0x10079dca ; _printf_core + 890
        0x10079dc4:    eba7000a    ....    SUB      r0,r7,r10
        0x10079dc8:    e000        ..      B        0x10079dcc ; _printf_core + 892
        0x10079dca:    2000        .       MOVS     r0,#0
        0x10079dcc:    eb00010a    ....    ADD      r1,r0,r10
        0x10079dd0:    9000        ..      STR      r0,[sp,#0]
        0x10079dd2:    9805        ..      LDR      r0,[sp,#0x14]
        0x10079dd4:    4441        AD      ADD      r1,r1,r8
        0x10079dd6:    1a40        @.      SUBS     r0,r0,r1
        0x10079dd8:    9005        ..      STR      r0,[sp,#0x14]
        0x10079dda:    03e0        ..      LSLS     r0,r4,#15
        0x10079ddc:    d406        ..      BMI      0x10079dec ; _printf_core + 924
        0x10079dde:    465b        [F      MOV      r3,r11
        0x10079de0:    4621        !F      MOV      r1,r4
        0x10079de2:    9a17        ..      LDR      r2,[sp,#0x5c]
        0x10079de4:    9805        ..      LDR      r0,[sp,#0x14]
        0x10079de6:    f000f9b3    ....    BL       _printf_pre_padding ; 0x1007a150
        0x10079dea:    4405        .D      ADD      r5,r5,r0
        0x10079dec:    2700        .'      MOVS     r7,#0
        0x10079dee:    e006        ..      B        0x10079dfe ; _printf_core + 942
        0x10079df0:    a801        ..      ADD      r0,sp,#4
        0x10079df2:    465a        ZF      MOV      r2,r11
        0x10079df4:    5dc0        .]      LDRB     r0,[r0,r7]
        0x10079df6:    9917        ..      LDR      r1,[sp,#0x5c]
        0x10079df8:    4790        .G      BLX      r2
        0x10079dfa:    1c6d        m.      ADDS     r5,r5,#1
        0x10079dfc:    1c7f        ..      ADDS     r7,r7,#1
        0x10079dfe:    4547        GE      CMP      r7,r8
        0x10079e00:    dbf6        ..      BLT      0x10079df0 ; _printf_core + 928
        0x10079e02:    03e0        ..      LSLS     r0,r4,#15
        0x10079e04:    d50c        ..      BPL      0x10079e20 ; _printf_core + 976
        0x10079e06:    465b        [F      MOV      r3,r11
        0x10079e08:    4621        !F      MOV      r1,r4
        0x10079e0a:    9a17        ..      LDR      r2,[sp,#0x5c]
        0x10079e0c:    9805        ..      LDR      r0,[sp,#0x14]
        0x10079e0e:    f000f99f    ....    BL       _printf_pre_padding ; 0x1007a150
        0x10079e12:    4405        .D      ADD      r5,r5,r0
        0x10079e14:    e004        ..      B        0x10079e20 ; _printf_core + 976
        0x10079e16:    2030        0       MOVS     r0,#0x30
        0x10079e18:    465a        ZF      MOV      r2,r11
        0x10079e1a:    9917        ..      LDR      r1,[sp,#0x5c]
        0x10079e1c:    4790        .G      BLX      r2
        0x10079e1e:    1c6d        m.      ADDS     r5,r5,#1
        0x10079e20:    9900        ..      LDR      r1,[sp,#0]
        0x10079e22:    1e48        H.      SUBS     r0,r1,#1
        0x10079e24:    9000        ..      STR      r0,[sp,#0]
        0x10079e26:    2900        .)      CMP      r1,#0
        0x10079e28:    dcf5        ..      BGT      0x10079e16 ; _printf_core + 966
        0x10079e2a:    e008        ..      B        0x10079e3e ; _printf_core + 1006
        0x10079e2c:    9802        ..      LDR      r0,[sp,#8]
        0x10079e2e:    9902        ..      LDR      r1,[sp,#8]
        0x10079e30:    465a        ZF      MOV      r2,r11
        0x10079e32:    7800        .x      LDRB     r0,[r0,#0]
        0x10079e34:    1c49        I.      ADDS     r1,r1,#1
        0x10079e36:    9102        ..      STR      r1,[sp,#8]
        0x10079e38:    9917        ..      LDR      r1,[sp,#0x5c]
        0x10079e3a:    4790        .G      BLX      r2
        0x10079e3c:    1c6d        m.      ADDS     r5,r5,#1
        0x10079e3e:    f1ba0100    ....    SUBS     r1,r10,#0
        0x10079e42:    f1aa0a01    ....    SUB      r10,r10,#1
        0x10079e46:    dcf1        ..      BGT      0x10079e2c ; _printf_core + 988
        0x10079e48:    e165        e.      B        0x1007a116 ; _printf_core + 1734
    $d
        0x10079e4a:    0000        ..      DCW    0
        0x10079e4c:    00012809    .(..    DCD    75785
        0x10079e50:    33323130    0123    DCD    858927408
        0x10079e54:    37363534    4567    DCD    926299444
        0x10079e58:    62613938    89ab    DCD    1650538808
        0x10079e5c:    66656463    cdef    DCD    1717920867
        0x10079e60:    00000000    ....    DCD    0
        0x10079e64:    33323130    0123    DCD    858927408
        0x10079e68:    37363534    4567    DCD    926299444
        0x10079e6c:    42413938    89AB    DCD    1111570744
        0x10079e70:    46454443    CDEF    DCD    1178944579
        0x10079e74:    00000000    ....    DCD    0
    $t
        0x10079e78:    f000f958    ..X.    BL       _printf_post_padding ; 0x1007a12c
        0x10079e7c:    4405        .D      ADD      r5,r5,r0
        0x10079e7e:    1c76        v.      ADDS     r6,r6,#1
        0x10079e80:    7830        0x      LDRB     r0,[r6,#0]
        0x10079e82:    2800        .(      CMP      r0,#0
        0x10079e84:    f47fadec    ....    BNE      0x10079a60 ; _printf_core + 16
        0x10079e88:    b019        ..      ADD      sp,sp,#0x64
        0x10079e8a:    4628        (F      MOV      r0,r5
        0x10079e8c:    e8bd8ff0    ....    POP      {r4-r11,pc}
        0x10079e90:    0762        b.      LSLS     r2,r4,#29
        0x10079e92:    d400        ..      BMI      0x10079e96 ; _printf_core + 1094
        0x10079e94:    2706        .'      MOVS     r7,#6
        0x10079e96:    f1090207    ....    ADD      r2,r9,#7
        0x10079e9a:    f0220c07    "...    BIC      r12,r2,#7
        0x10079e9e:    e8fc2302    ...#    LDRD     r2,r3,[r12],#8
        0x10079ea2:    46e1        .F      MOV      r9,r12
        0x10079ea4:    f0034800    ...H    AND      r8,r3,#0x80000000
        0x10079ea8:    ea5f0c08    _...    MOVS     r12,r8
        0x10079eac:    d002        ..      BEQ      0x10079eb4 ; _printf_core + 1124
        0x10079eae:    f20f2c70    ..p,    ADR.W    r12,{pc}+0x272 ; 0x1007a120
        0x10079eb2:    e00d        ..      B        0x10079ed0 ; _printf_core + 1152
        0x10079eb4:    ea5f5c04    _..\    LSLS     r12,r4,#20
        0x10079eb8:    d502        ..      BPL      0x10079ec0 ; _printf_core + 1136
        0x10079eba:    f20f2c68    ..h,    ADR.W    r12,{pc}+0x26a ; 0x1007a124
        0x10079ebe:    e007        ..      B        0x10079ed0 ; _printf_core + 1152
        0x10079ec0:    ea5f7cc4    _..|    LSLS     r12,r4,#31
        0x10079ec4:    d002        ..      BEQ      0x10079ecc ; _printf_core + 1148
        0x10079ec6:    f20f2c60    ..`,    ADR.W    r12,{pc}+0x262 ; 0x1007a128
        0x10079eca:    e001        ..      B        0x10079ed0 ; _printf_core + 1152
        0x10079ecc:    f2af0c70    ..p.    ADR      r12,{pc}-0x6c ; 0x10079e60
        0x10079ed0:    f04f38ff    O..8    MOV      r8,#0xffffffff
        0x10079ed4:    f0234300    #..C    BIC      r3,r3,#0x80000000
        0x10079ed8:    f8cdc050    ..P.    STR      r12,[sp,#0x50]
        0x10079edc:    2865        e(      CMP      r0,#0x65
        0x10079ede:    d00c        ..      BEQ      0x10079efa ; _printf_core + 1194
        0x10079ee0:    dc06        ..      BGT      0x10079ef0 ; _printf_core + 1184
        0x10079ee2:    2845        E(      CMP      r0,#0x45
        0x10079ee4:    d009        ..      BEQ      0x10079efa ; _printf_core + 1194
        0x10079ee6:    2846        F(      CMP      r0,#0x46
        0x10079ee8:    d01d        ..      BEQ      0x10079f26 ; _printf_core + 1238
        0x10079eea:    2847        G(      CMP      r0,#0x47
        0x10079eec:    d13d        =.      BNE      0x10079f6a ; _printf_core + 1306
        0x10079eee:    e03d        =.      B        0x10079f6c ; _printf_core + 1308
        0x10079ef0:    2866        f(      CMP      r0,#0x66
        0x10079ef2:    d018        ..      BEQ      0x10079f26 ; _printf_core + 1238
        0x10079ef4:    2867        g(      CMP      r0,#0x67
        0x10079ef6:    d17e        ~.      BNE      0x10079ff6 ; _printf_core + 1446
        0x10079ef8:    e038        8.      B        0x10079f6c ; _printf_core + 1308
        0x10079efa:    2100        .!      MOVS     r1,#0
        0x10079efc:    2f11        ./      CMP      r7,#0x11
        0x10079efe:    db01        ..      BLT      0x10079f04 ; _printf_core + 1204
        0x10079f00:    2011        .       MOVS     r0,#0x11
        0x10079f02:    e000        ..      B        0x10079f06 ; _printf_core + 1206
        0x10079f04:    1c78        x.      ADDS     r0,r7,#1
        0x10079f06:    e9cd0100    ....    STRD     r0,r1,[sp,#0]
        0x10079f0a:    a906        ..      ADD      r1,sp,#0x18
        0x10079f0c:    a80e        ..      ADD      r0,sp,#0x38
        0x10079f0e:    f7fffcdd    ....    BL       _fp_digits ; 0x100798cc
        0x10079f12:    e9dd010f    ....    LDRD     r0,r1,[sp,#0x3c]
        0x10079f16:    9a0e        ..      LDR      r2,[sp,#0x38]
        0x10079f18:    9103        ..      STR      r1,[sp,#0xc]
        0x10079f1a:    2100        .!      MOVS     r1,#0
        0x10079f1c:    9200        ..      STR      r2,[sp,#0]
        0x10079f1e:    f1070a01    ....    ADD      r10,r7,#1
        0x10079f22:    9104        ..      STR      r1,[sp,#0x10]
        0x10079f24:    e04d        M.      B        0x10079fc2 ; _printf_core + 1394
        0x10079f26:    f04f4000    O..@    MOV      r0,#0x80000000
        0x10079f2a:    9700        ..      STR      r7,[sp,#0]
        0x10079f2c:    e9cd1001    ....    STRD     r1,r0,[sp,#4]
        0x10079f30:    a906        ..      ADD      r1,sp,#0x18
        0x10079f32:    a80e        ..      ADD      r0,sp,#0x38
        0x10079f34:    f7fffcca    ....    BL       _fp_digits ; 0x100798cc
        0x10079f38:    e9dd020f    ....    LDRD     r0,r2,[sp,#0x3c]
        0x10079f3c:    9203        ..      STR      r2,[sp,#0xc]
        0x10079f3e:    9b0e        ..      LDR      r3,[sp,#0x38]
        0x10079f40:    9911        ..      LDR      r1,[sp,#0x44]
        0x10079f42:    2200        ."      MOVS     r2,#0
        0x10079f44:    f8dda00c    ....    LDR      r10,[sp,#0xc]
        0x10079f48:    9300        ..      STR      r3,[sp,#0]
        0x10079f4a:    9204        ..      STR      r2,[sp,#0x10]
        0x10079f4c:    b911        ..      CBNZ     r1,0x10079f54 ; _printf_core + 1284
        0x10079f4e:    1c79        y.      ADDS     r1,r7,#1
        0x10079f50:    eb000a01    ....    ADD      r10,r0,r1
        0x10079f54:    ebb7000a    ....    SUBS     r0,r7,r10
        0x10079f58:    d404        ..      BMI      0x10079f64 ; _printf_core + 1300
        0x10079f5a:    f1c030ff    ...0    RSB      r0,r0,#0xffffffff
        0x10079f5e:    f1070a01    ....    ADD      r10,r7,#1
        0x10079f62:    9004        ..      STR      r0,[sp,#0x10]
        0x10079f64:    ebaa0007    ....    SUB      r0,r10,r7
        0x10079f68:    9001        ..      STR      r0,[sp,#4]
        0x10079f6a:    e044        D.      B        0x10079ff6 ; _printf_core + 1446
        0x10079f6c:    2f01        ./      CMP      r7,#1
        0x10079f6e:    da00        ..      BGE      0x10079f72 ; _printf_core + 1314
        0x10079f70:    2701        .'      MOVS     r7,#1
        0x10079f72:    2100        .!      MOVS     r1,#0
        0x10079f74:    2f11        ./      CMP      r7,#0x11
        0x10079f76:    dd01        ..      BLE      0x10079f7c ; _printf_core + 1324
        0x10079f78:    2011        .       MOVS     r0,#0x11
        0x10079f7a:    e000        ..      B        0x10079f7e ; _printf_core + 1326
        0x10079f7c:    4638        8F      MOV      r0,r7
        0x10079f7e:    e9cd0100    ....    STRD     r0,r1,[sp,#0]
        0x10079f82:    a906        ..      ADD      r1,sp,#0x18
        0x10079f84:    a80e        ..      ADD      r0,sp,#0x38
        0x10079f86:    f7fffca1    ....    BL       _fp_digits ; 0x100798cc
        0x10079f8a:    e9dd010f    ....    LDRD     r0,r1,[sp,#0x3c]
        0x10079f8e:    9a0e        ..      LDR      r2,[sp,#0x38]
        0x10079f90:    9103        ..      STR      r1,[sp,#0xc]
        0x10079f92:    2100        .!      MOVS     r1,#0
        0x10079f94:    9104        ..      STR      r1,[sp,#0x10]
        0x10079f96:    9200        ..      STR      r2,[sp,#0]
        0x10079f98:    46ba        .F      MOV      r10,r7
        0x10079f9a:    0721        !.      LSLS     r1,r4,#28
        0x10079f9c:    d40c        ..      BMI      0x10079fb8 ; _printf_core + 1384
        0x10079f9e:    9903        ..      LDR      r1,[sp,#0xc]
        0x10079fa0:    4551        QE      CMP      r1,r10
        0x10079fa2:    da00        ..      BGE      0x10079fa6 ; _printf_core + 1366
        0x10079fa4:    468a        .F      MOV      r10,r1
        0x10079fa6:    f1ba0f01    ....    CMP      r10,#1
        0x10079faa:    dd05        ..      BLE      0x10079fb8 ; _printf_core + 1384
        0x10079fac:    9a00        ..      LDR      r2,[sp,#0]
        0x10079fae:    f1aa0101    ....    SUB      r1,r10,#1
        0x10079fb2:    5c51        Q\      LDRB     r1,[r2,r1]
        0x10079fb4:    2930        0)      CMP      r1,#0x30
        0x10079fb6:    d008        ..      BEQ      0x10079fca ; _printf_core + 1402
        0x10079fb8:    42b8        .B      CMP      r0,r7
        0x10079fba:    da02        ..      BGE      0x10079fc2 ; _printf_core + 1394
        0x10079fbc:    f1100f04    ....    CMN      r0,#4
        0x10079fc0:    da06        ..      BGE      0x10079fd0 ; _printf_core + 1408
        0x10079fc2:    2101        .!      MOVS     r1,#1
        0x10079fc4:    e9cd1001    ....    STRD     r1,r0,[sp,#4]
        0x10079fc8:    e015        ..      B        0x10079ff6 ; _printf_core + 1446
        0x10079fca:    f1aa0101    ....    SUB      r1,r10,#1
        0x10079fce:    e7e9        ..      B        0x10079fa4 ; _printf_core + 1364
        0x10079fd0:    2800        .(      CMP      r0,#0
        0x10079fd2:    dc05        ..      BGT      0x10079fe0 ; _printf_core + 1424
        0x10079fd4:    9904        ..      LDR      r1,[sp,#0x10]
        0x10079fd6:    4401        .D      ADD      r1,r1,r0
        0x10079fd8:    9104        ..      STR      r1,[sp,#0x10]
        0x10079fda:    ebaa0100    ....    SUB      r1,r10,r0
        0x10079fde:    e002        ..      B        0x10079fe6 ; _printf_core + 1430
        0x10079fe0:    1c41        A.      ADDS     r1,r0,#1
        0x10079fe2:    4551        QE      CMP      r1,r10
        0x10079fe4:    dd00        ..      BLE      0x10079fe8 ; _printf_core + 1432
        0x10079fe6:    468a        .F      MOV      r10,r1
        0x10079fe8:    9904        ..      LDR      r1,[sp,#0x10]
        0x10079fea:    1a40        @.      SUBS     r0,r0,r1
        0x10079fec:    1c40        @.      ADDS     r0,r0,#1
        0x10079fee:    9001        ..      STR      r0,[sp,#4]
        0x10079ff0:    f04f4000    O..@    MOV      r0,#0x80000000
        0x10079ff4:    9002        ..      STR      r0,[sp,#8]
        0x10079ff6:    0720         .      LSLS     r0,r4,#28
        0x10079ff8:    d404        ..      BMI      0x1007a004 ; _printf_core + 1460
        0x10079ffa:    9801        ..      LDR      r0,[sp,#4]
        0x10079ffc:    4550        PE      CMP      r0,r10
        0x10079ffe:    db01        ..      BLT      0x1007a004 ; _printf_core + 1460
        0x1007a000:    f8cd8004    ....    STR      r8,[sp,#4]
        0x1007a004:    2000        .       MOVS     r0,#0
        0x1007a006:    f88d004f    ..O.    STRB     r0,[sp,#0x4f]
        0x1007a00a:    9802        ..      LDR      r0,[sp,#8]
        0x1007a00c:    f10d074f    ..O.    ADD      r7,sp,#0x4f
        0x1007a010:    f1b04f00    ...O    CMP      r0,#0x80000000
        0x1007a014:    d025        %.      BEQ      0x1007a062 ; _printf_core + 1554
        0x1007a016:    202b        +       MOVS     r0,#0x2b
        0x1007a018:    900e        ..      STR      r0,[sp,#0x38]
        0x1007a01a:    9802        ..      LDR      r0,[sp,#8]
        0x1007a01c:    f04f0802    O...    MOV      r8,#2
        0x1007a020:    2800        .(      CMP      r0,#0
        0x1007a022:    da0c        ..      BGE      0x1007a03e ; _printf_core + 1518
        0x1007a024:    4240        @B      RSBS     r0,r0,#0
        0x1007a026:    9002        ..      STR      r0,[sp,#8]
        0x1007a028:    202d        -       MOVS     r0,#0x2d
        0x1007a02a:    900e        ..      STR      r0,[sp,#0x38]
        0x1007a02c:    e007        ..      B        0x1007a03e ; _printf_core + 1518
        0x1007a02e:    210a        .!      MOVS     r1,#0xa
        0x1007a030:    9802        ..      LDR      r0,[sp,#8]
        0x1007a032:    f7fff82f    ../.    BL       __aeabi_uidiv ; 0x10079094
        0x1007a036:    3130        01      ADDS     r1,r1,#0x30
        0x1007a038:    9002        ..      STR      r0,[sp,#8]
        0x1007a03a:    f8071d01    ....    STRB     r1,[r7,#-1]!
        0x1007a03e:    f1b80100    ....    SUBS     r1,r8,#0
        0x1007a042:    f1a80801    ....    SUB      r8,r8,#1
        0x1007a046:    dcf2        ..      BGT      0x1007a02e ; _printf_core + 1502
        0x1007a048:    9802        ..      LDR      r0,[sp,#8]
        0x1007a04a:    2800        .(      CMP      r0,#0
        0x1007a04c:    d1ef        ..      BNE      0x1007a02e ; _printf_core + 1502
        0x1007a04e:    1e79        y.      SUBS     r1,r7,#1
        0x1007a050:    980e        ..      LDR      r0,[sp,#0x38]
        0x1007a052:    7008        .p      STRB     r0,[r1,#0]
        0x1007a054:    7830        0x      LDRB     r0,[r6,#0]
        0x1007a056:    f0000020    .. .    AND      r0,r0,#0x20
        0x1007a05a:    f0400045    @.E.    ORR      r0,r0,#0x45
        0x1007a05e:    f8070d02    ....    STRB     r0,[r7,#-2]!
        0x1007a062:    a812        ..      ADD      r0,sp,#0x48
        0x1007a064:    1bc0        ..      SUBS     r0,r0,r7
        0x1007a066:    f1000807    ....    ADD      r8,r0,#7
        0x1007a06a:    9814        ..      LDR      r0,[sp,#0x50]
        0x1007a06c:    7800        .x      LDRB     r0,[r0,#0]
        0x1007a06e:    b100        ..      CBZ      r0,0x1007a072 ; _printf_core + 1570
        0x1007a070:    2001        .       MOVS     r0,#1
        0x1007a072:    eb00010a    ....    ADD      r1,r0,r10
        0x1007a076:    9801        ..      LDR      r0,[sp,#4]
        0x1007a078:    eb0171e0    ...q    ADD      r1,r1,r0,ASR #31
        0x1007a07c:    9805        ..      LDR      r0,[sp,#0x14]
        0x1007a07e:    4441        AD      ADD      r1,r1,r8
        0x1007a080:    1a40        @.      SUBS     r0,r0,r1
        0x1007a082:    1e40        @.      SUBS     r0,r0,#1
        0x1007a084:    9005        ..      STR      r0,[sp,#0x14]
        0x1007a086:    03e0        ..      LSLS     r0,r4,#15
        0x1007a088:    d406        ..      BMI      0x1007a098 ; _printf_core + 1608
        0x1007a08a:    465b        [F      MOV      r3,r11
        0x1007a08c:    4621        !F      MOV      r1,r4
        0x1007a08e:    9a17        ..      LDR      r2,[sp,#0x5c]
        0x1007a090:    9805        ..      LDR      r0,[sp,#0x14]
        0x1007a092:    f000f85d    ..].    BL       _printf_pre_padding ; 0x1007a150
        0x1007a096:    4405        .D      ADD      r5,r5,r0
        0x1007a098:    9814        ..      LDR      r0,[sp,#0x50]
        0x1007a09a:    7800        .x      LDRB     r0,[r0,#0]
        0x1007a09c:    b118        ..      CBZ      r0,0x1007a0a6 ; _printf_core + 1622
        0x1007a09e:    465a        ZF      MOV      r2,r11
        0x1007a0a0:    9917        ..      LDR      r1,[sp,#0x5c]
        0x1007a0a2:    4790        .G      BLX      r2
        0x1007a0a4:    1c6d        m.      ADDS     r5,r5,#1
        0x1007a0a6:    03e0        ..      LSLS     r0,r4,#15
        0x1007a0a8:    d524        $.      BPL      0x1007a0f4 ; _printf_core + 1700
        0x1007a0aa:    465b        [F      MOV      r3,r11
        0x1007a0ac:    4621        !F      MOV      r1,r4
        0x1007a0ae:    9a17        ..      LDR      r2,[sp,#0x5c]
        0x1007a0b0:    9805        ..      LDR      r0,[sp,#0x14]
        0x1007a0b2:    f000f84d    ..M.    BL       _printf_pre_padding ; 0x1007a150
        0x1007a0b6:    4405        .D      ADD      r5,r5,r0
        0x1007a0b8:    e01c        ..      B        0x1007a0f4 ; _printf_core + 1700
        0x1007a0ba:    9804        ..      LDR      r0,[sp,#0x10]
        0x1007a0bc:    2800        .(      CMP      r0,#0
        0x1007a0be:    db07        ..      BLT      0x1007a0d0 ; _printf_core + 1664
        0x1007a0c0:    e9dd0103    ....    LDRD     r0,r1,[sp,#0xc]
        0x1007a0c4:    4288        .B      CMP      r0,r1
        0x1007a0c6:    dd03        ..      BLE      0x1007a0d0 ; _printf_core + 1664
        0x1007a0c8:    9800        ..      LDR      r0,[sp,#0]
        0x1007a0ca:    5c40        @\      LDRB     r0,[r0,r1]
        0x1007a0cc:    9917        ..      LDR      r1,[sp,#0x5c]
        0x1007a0ce:    e001        ..      B        0x1007a0d4 ; _printf_core + 1668
        0x1007a0d0:    9917        ..      LDR      r1,[sp,#0x5c]
        0x1007a0d2:    2030        0       MOVS     r0,#0x30
        0x1007a0d4:    465a        ZF      MOV      r2,r11
        0x1007a0d6:    4790        .G      BLX      r2
        0x1007a0d8:    9804        ..      LDR      r0,[sp,#0x10]
        0x1007a0da:    f1050501    ....    ADD      r5,r5,#1
        0x1007a0de:    1c40        @.      ADDS     r0,r0,#1
        0x1007a0e0:    9004        ..      STR      r0,[sp,#0x10]
        0x1007a0e2:    9801        ..      LDR      r0,[sp,#4]
        0x1007a0e4:    1e40        @.      SUBS     r0,r0,#1
        0x1007a0e6:    9001        ..      STR      r0,[sp,#4]
        0x1007a0e8:    d104        ..      BNE      0x1007a0f4 ; _printf_core + 1700
        0x1007a0ea:    202e        .       MOVS     r0,#0x2e
        0x1007a0ec:    465a        ZF      MOV      r2,r11
        0x1007a0ee:    9917        ..      LDR      r1,[sp,#0x5c]
        0x1007a0f0:    4790        .G      BLX      r2
        0x1007a0f2:    1c6d        m.      ADDS     r5,r5,#1
        0x1007a0f4:    f1ba0100    ....    SUBS     r1,r10,#0
        0x1007a0f8:    f1aa0a01    ....    SUB      r10,r10,#1
        0x1007a0fc:    dcdd        ..      BGT      0x1007a0ba ; _printf_core + 1642
        0x1007a0fe:    e005        ..      B        0x1007a10c ; _printf_core + 1724
        0x1007a100:    f8170b01    ....    LDRB     r0,[r7],#1
        0x1007a104:    465a        ZF      MOV      r2,r11
        0x1007a106:    9917        ..      LDR      r1,[sp,#0x5c]
        0x1007a108:    4790        .G      BLX      r2
        0x1007a10a:    1c6d        m.      ADDS     r5,r5,#1
        0x1007a10c:    f1b80100    ....    SUBS     r1,r8,#0
        0x1007a110:    f1a80801    ....    SUB      r8,r8,#1
        0x1007a114:    dcf4        ..      BGT      0x1007a100 ; _printf_core + 1712
        0x1007a116:    465b        [F      MOV      r3,r11
        0x1007a118:    4621        !F      MOV      r1,r4
        0x1007a11a:    9a17        ..      LDR      r2,[sp,#0x5c]
        0x1007a11c:    9805        ..      LDR      r0,[sp,#0x14]
        0x1007a11e:    e6ab        ..      B        0x10079e78 ; _printf_core + 1064
    $d
        0x1007a120:    0000002d    -...    DCD    45
        0x1007a124:    0000002b    +...    DCD    43
        0x1007a128:    00000020     ...    DCD    32
    $t
    i._printf_post_padding
    _printf_post_padding
        0x1007a12c:    e92d41f0    -..A    PUSH     {r4-r8,lr}
        0x1007a130:    4604        .F      MOV      r4,r0
        0x1007a132:    2500        .%      MOVS     r5,#0
        0x1007a134:    461e        .F      MOV      r6,r3
        0x1007a136:    4617        .F      MOV      r7,r2
        0x1007a138:    0488        ..      LSLS     r0,r1,#18
        0x1007a13a:    d404        ..      BMI      0x1007a146 ; _printf_post_padding + 26
        0x1007a13c:    e005        ..      B        0x1007a14a ; _printf_post_padding + 30
        0x1007a13e:    4639        9F      MOV      r1,r7
        0x1007a140:    2020                MOVS     r0,#0x20
        0x1007a142:    47b0        .G      BLX      r6
        0x1007a144:    1c6d        m.      ADDS     r5,r5,#1
        0x1007a146:    1e64        d.      SUBS     r4,r4,#1
        0x1007a148:    d5f9        ..      BPL      0x1007a13e ; _printf_post_padding + 18
        0x1007a14a:    4628        (F      MOV      r0,r5
        0x1007a14c:    e8bd81f0    ....    POP      {r4-r8,pc}
    i._printf_pre_padding
    _printf_pre_padding
        0x1007a150:    e92d41f0    -..A    PUSH     {r4-r8,lr}
        0x1007a154:    4604        .F      MOV      r4,r0
        0x1007a156:    2500        .%      MOVS     r5,#0
        0x1007a158:    461e        .F      MOV      r6,r3
        0x1007a15a:    4690        .F      MOV      r8,r2
        0x1007a15c:    03c8        ..      LSLS     r0,r1,#15
        0x1007a15e:    d501        ..      BPL      0x1007a164 ; _printf_pre_padding + 20
        0x1007a160:    2730        0'      MOVS     r7,#0x30
        0x1007a162:    e000        ..      B        0x1007a166 ; _printf_pre_padding + 22
        0x1007a164:    2720         '      MOVS     r7,#0x20
        0x1007a166:    0488        ..      LSLS     r0,r1,#18
        0x1007a168:    d504        ..      BPL      0x1007a174 ; _printf_pre_padding + 36
        0x1007a16a:    e005        ..      B        0x1007a178 ; _printf_pre_padding + 40
        0x1007a16c:    4641        AF      MOV      r1,r8
        0x1007a16e:    4638        8F      MOV      r0,r7
        0x1007a170:    47b0        .G      BLX      r6
        0x1007a172:    1c6d        m.      ADDS     r5,r5,#1
        0x1007a174:    1e64        d.      SUBS     r4,r4,#1
        0x1007a176:    d5f9        ..      BPL      0x1007a16c ; _printf_pre_padding + 28
        0x1007a178:    4628        (F      MOV      r0,r5
        0x1007a17a:    e8bd81f0    ....    POP      {r4-r8,pc}
        0x1007a17e:    0000        ..      MOVS     r0,r0
    i.clear_TMR_INT_status_bit
    clear_TMR_INT_status_bit
        0x1007a180:    4904        .I      LDR      r1,[pc,#16] ; [0x1007a194] = 0x83050000
        0x1007a182:    b120         .      CBZ      r0,0x1007a18e ; clear_TMR_INT_status_bit + 14
        0x1007a184:    2801        .(      CMP      r0,#1
        0x1007a186:    d101        ..      BNE      0x1007a18c ; clear_TMR_INT_status_bit + 12
        0x1007a188:    2002        .       MOVS     r0,#2
        0x1007a18a:    6008        .`      STR      r0,[r1,#0]
        0x1007a18c:    4770        pG      BX       lr
        0x1007a18e:    2001        .       MOVS     r0,#1
        0x1007a190:    e7fb        ..      B        0x1007a18a ; clear_TMR_INT_status_bit + 10
    $d
        0x1007a192:    0000        ..      DCW    0
        0x1007a194:    83050000    ....    DCD    2198142976
    $t
    i.delay_ms
    delay_ms
        0x1007a198:    ebc002c0    ....    RSB      r2,r0,r0,LSL #3
        0x1007a19c:    230a        .#      MOVS     r3,#0xa
        0x1007a19e:    fbb2f2f3    ....    UDIV     r2,r2,r3
        0x1007a1a2:    eb021140    ..@.    ADD      r1,r2,r0,LSL #5
        0x1007a1a6:    eb000240    ..@.    ADD      r2,r0,r0,LSL #1
        0x1007a1aa:    0052        R.      LSLS     r2,r2,#1
        0x1007a1ac:    2364        d#      MOVS     r3,#0x64
        0x1007a1ae:    fbb2f2f3    ....    UDIV     r2,r2,r3
        0x1007a1b2:    4411        .D      ADD      r1,r1,r2
        0x1007a1b4:    00c0        ..      LSLS     r0,r0,#3
        0x1007a1b6:    f44f727a    O.zr    MOV      r2,#0x3e8
        0x1007a1ba:    fbb0f0f2    ....    UDIV     r0,r0,r2
        0x1007a1be:    4408        .D      ADD      r0,r0,r1
        0x1007a1c0:    f3af8000    ....    NOP.W    
    i.delay_time
    delay_time
        0x1007a1c4:    b510        ..      PUSH     {r4,lr}
        0x1007a1c6:    4604        .F      MOV      r4,r0
        0x1007a1c8:    f000f828    ..(.    BL       get_current_count ; 0x1007a21c
        0x1007a1cc:    4404        .D      ADD      r4,r4,r0
        0x1007a1ce:    1c64        d.      ADDS     r4,r4,#1
        0x1007a1d0:    f000f824    ..$.    BL       get_current_count ; 0x1007a21c
        0x1007a1d4:    1b00        ..      SUBS     r0,r0,r4
        0x1007a1d6:    d4fb        ..      BMI      0x1007a1d0 ; delay_time + 12
        0x1007a1d8:    bd10        ..      POP      {r4,pc}
    i.delay_time_for_gpt4
    delay_time_for_gpt4
        0x1007a1da:    b510        ..      PUSH     {r4,lr}
        0x1007a1dc:    4604        .F      MOV      r4,r0
        0x1007a1de:    f000f820    .. .    BL       get_current_gpt4_count ; 0x1007a222
        0x1007a1e2:    4404        .D      ADD      r4,r4,r0
        0x1007a1e4:    1c64        d.      ADDS     r4,r4,#1
        0x1007a1e6:    f000f81c    ....    BL       get_current_gpt4_count ; 0x1007a222
        0x1007a1ea:    1b00        ..      SUBS     r0,r0,r4
        0x1007a1ec:    d4fb        ..      BMI      0x1007a1e6 ; delay_time_for_gpt4 + 12
        0x1007a1ee:    bd10        ..      POP      {r4,pc}
    i.delay_us
    delay_us
        0x1007a1f0:    b510        ..      PUSH     {r4,lr}
        0x1007a1f2:    4604        .F      MOV      r4,r0
        0x1007a1f4:    f000fe4e    ..N.    BL       top_mcu_freq_get ; 0x1007ae94
        0x1007a1f8:    4903        .I      LDR      r1,[pc,#12] ; [0x1007a208] = 0xf4240
        0x1007a1fa:    fbb0f0f1    ....    UDIV     r0,r0,r1
        0x1007a1fe:    4360        `C      MULS     r0,r4,r0
        0x1007a200:    e8bd4010    ...@    POP      {r4,lr}
        0x1007a204:    f7ffbfe9    ....    B.W      delay_time_for_gpt4 ; 0x1007a1da
    $d
        0x1007a208:    000f4240    @B..    DCD    1000000
    $t
    i.fputc
    fputc
        0x1007a20c:    b510        ..      PUSH     {r4,lr}
        0x1007a20e:    4604        .F      MOV      r4,r0
        0x1007a210:    b2c1        ..      UXTB     r1,r0
        0x1007a212:    2000        .       MOVS     r0,#0
        0x1007a214:    f000fbfb    ....    BL       hal_uart_put_char ; 0x1007aa0e
        0x1007a218:    4620         F      MOV      r0,r4
        0x1007a21a:    bd10        ..      POP      {r4,pc}
    i.get_current_count
    get_current_count
        0x1007a21c:    2002        .       MOVS     r0,#2
        0x1007a21e:    f7ffbaad    ....    B        GPT_return_current_count ; 0x1007977c
    i.get_current_gpt4_count
    get_current_gpt4_count
        0x1007a222:    2004        .       MOVS     r0,#4
        0x1007a224:    f7ffbaaa    ....    B        GPT_return_current_count ; 0x1007977c
    i.gpio_application_ini_0
    gpio_application_ini_0
        0x1007a228:    b510        ..      PUSH     {r4,lr}
        0x1007a22a:    2000        .       MOVS     r0,#0
        0x1007a22c:    f000fac4    ....    BL       hal_gpio_init ; 0x1007a7b8
        0x1007a230:    2108        .!      MOVS     r1,#8
        0x1007a232:    2000        .       MOVS     r0,#0
        0x1007a234:    f000fb5a    ..Z.    BL       hal_pinmux_set_function ; 0x1007a8ec
        0x1007a238:    2101        .!      MOVS     r1,#1
        0x1007a23a:    2000        .       MOVS     r0,#0
        0x1007a23c:    f000fabe    ....    BL       hal_gpio_set_direction ; 0x1007a7bc
        0x1007a240:    2100        .!      MOVS     r1,#0
        0x1007a242:    e8bd4010    ...@    POP      {r4,lr}
        0x1007a246:    4608        .F      MOV      r0,r1
        0x1007a248:    f000bac7    ....    B.W      hal_gpio_set_output ; 0x1007a7da
    i.gpio_application_ini_37
    gpio_application_ini_37
        0x1007a24c:    b510        ..      PUSH     {r4,lr}
        0x1007a24e:    2025        %       MOVS     r0,#0x25
        0x1007a250:    f000fab2    ....    BL       hal_gpio_init ; 0x1007a7b8
        0x1007a254:    2108        .!      MOVS     r1,#8
        0x1007a256:    2025        %       MOVS     r0,#0x25
        0x1007a258:    f000fb48    ..H.    BL       hal_pinmux_set_function ; 0x1007a8ec
        0x1007a25c:    2100        .!      MOVS     r1,#0
        0x1007a25e:    e8bd4010    ...@    POP      {r4,lr}
        0x1007a262:    2025        %       MOVS     r0,#0x25
        0x1007a264:    f000baaa    ....    B.W      hal_gpio_set_direction ; 0x1007a7bc
    i.gpio_application_ini_39
    gpio_application_ini_39
        0x1007a268:    b510        ..      PUSH     {r4,lr}
        0x1007a26a:    2027        '       MOVS     r0,#0x27
        0x1007a26c:    f000faa4    ....    BL       hal_gpio_init ; 0x1007a7b8
        0x1007a270:    2108        .!      MOVS     r1,#8
        0x1007a272:    2027        '       MOVS     r0,#0x27
        0x1007a274:    f000fb3a    ..:.    BL       hal_pinmux_set_function ; 0x1007a8ec
        0x1007a278:    2101        .!      MOVS     r1,#1
        0x1007a27a:    2027        '       MOVS     r0,#0x27
        0x1007a27c:    f000fa9e    ....    BL       hal_gpio_set_direction ; 0x1007a7bc
        0x1007a280:    2100        .!      MOVS     r1,#0
        0x1007a282:    e8bd4010    ...@    POP      {r4,lr}
        0x1007a286:    2027        '       MOVS     r0,#0x27
        0x1007a288:    f000baa7    ....    B.W      hal_gpio_set_output ; 0x1007a7da
    i.gpio_direction
    gpio_direction
        0x1007a28c:    f000b818    ....    B.W      halGPIO_ConfDirection ; 0x1007a2c0
    i.gpio_get_status
    gpio_get_status
        0x1007a290:    b570        p.      PUSH     {r4-r6,lr}
        0x1007a292:    4606        .F      MOV      r6,r0
        0x1007a294:    460d        .F      MOV      r5,r1
        0x1007a296:    4608        .F      MOV      r0,r1
        0x1007a298:    f000fc66    ..f.    BL       halgetGPIO_OutEnable ; 0x1007ab68
        0x1007a29c:    f3600407    `...    BFI      r4,r0,#0,#8
        0x1007a2a0:    4628        (F      MOV      r0,r5
        0x1007a2a2:    f000fc37    ..7.    BL       halgetGPIO_DIN ; 0x1007ab14
        0x1007a2a6:    f360240f    `..$    BFI      r4,r0,#8,#8
        0x1007a2aa:    4628        (F      MOV      r0,r5
        0x1007a2ac:    f000fc48    ..H.    BL       halgetGPIO_DOUT ; 0x1007ab40
        0x1007a2b0:    f3604417    `..D    BFI      r4,r0,#16,#8
        0x1007a2b4:    e9c65400    ...T    STRD     r5,r4,[r6,#0]
        0x1007a2b8:    bd70        p.      POP      {r4-r6,pc}
    i.gpio_write
    gpio_write
        0x1007a2ba:    f000b8a7    ....    B.W      halGPO_Write ; 0x1007a40c
        0x1007a2be:    0000        ..      MOVS     r0,r0
    i.halGPIO_ConfDirection
    halGPIO_ConfDirection
        0x1007a2c0:    b5f0        ..      PUSH     {r4-r7,lr}
        0x1007a2c2:    f3c0174f    ..O.    UBFX     r7,r0,#5,#16
        0x1007a2c6:    f000041f    ....    AND      r4,r0,#0x1f
        0x1007a2ca:    4a4e        NJ      LDR      r2,[pc,#312] ; [0x1007a404] = 0x81023000
        0x1007a2cc:    2501        .%      MOVS     r5,#1
        0x1007a2ce:    4b4e        NK      LDR      r3,[pc,#312] ; [0x1007a408] = 0x8300b000
        0x1007a2d0:    f000001f    ....    AND      r0,r0,#0x1f
        0x1007a2d4:    f6400602    @...    MOV      r6,#0x802
        0x1007a2d8:    4085        .@      LSLS     r5,r5,r0
        0x1007a2da:    b11f        ..      CBZ      r7,0x1007a2e4 ; halGPIO_ConfDirection + 36
        0x1007a2dc:    2f01        ./      CMP      r7,#1
        0x1007a2de:    d06f        o.      BEQ      0x1007a3c0 ; halGPIO_ConfDirection + 256
        0x1007a2e0:    17d0        ..      ASRS     r0,r2,#31
        0x1007a2e2:    bdf0        ..      POP      {r4-r7,pc}
        0x1007a2e4:    2901        .)      CMP      r1,#1
        0x1007a2e6:    d007        ..      BEQ      0x1007a2f8 ; halGPIO_ConfDirection + 56
        0x1007a2e8:    2c1a        .,      CMP      r4,#0x1a
        0x1007a2ea:    d847        G.      BHI      0x1007a37c ; halGPIO_ConfDirection + 188
        0x1007a2ec:    f8d30100    ....    LDR      r0,[r3,#0x100]
        0x1007a2f0:    4328        (C      ORRS     r0,r0,r5
        0x1007a2f2:    f8c30100    ....    STR      r0,[r3,#0x100]
        0x1007a2f6:    e05f        _.      B        0x1007a3b8 ; halGPIO_ConfDirection + 248
        0x1007a2f8:    2c1a        .,      CMP      r4,#0x1a
        0x1007a2fa:    d805        ..      BHI      0x1007a308 ; halGPIO_ConfDirection + 72
        0x1007a2fc:    f8d30100    ....    LDR      r0,[r3,#0x100]
        0x1007a300:    43a8        .C      BICS     r0,r0,r5
        0x1007a302:    f8c30100    ....    STR      r0,[r3,#0x100]
        0x1007a306:    e036        6.      B        0x1007a376 ; halGPIO_ConfDirection + 182
        0x1007a308:    2c1b        .,      CMP      r4,#0x1b
        0x1007a30a:    d008        ..      BEQ      0x1007a31e ; halGPIO_ConfDirection + 94
        0x1007a30c:    2c1c        .,      CMP      r4,#0x1c
        0x1007a30e:    d00f        ..      BEQ      0x1007a330 ; halGPIO_ConfDirection + 112
        0x1007a310:    2c1d        .,      CMP      r4,#0x1d
        0x1007a312:    d016        ..      BEQ      0x1007a342 ; halGPIO_ConfDirection + 130
        0x1007a314:    2c1e        .,      CMP      r4,#0x1e
        0x1007a316:    d01d        ..      BEQ      0x1007a354 ; halGPIO_ConfDirection + 148
        0x1007a318:    2c1f        .,      CMP      r4,#0x1f
        0x1007a31a:    d024        $.      BEQ      0x1007a366 ; halGPIO_ConfDirection + 166
        0x1007a31c:    e02b        +.      B        0x1007a376 ; halGPIO_ConfDirection + 182
        0x1007a31e:    6c90        .l      LDR      r0,[r2,#0x48]
        0x1007a320:    f0200002     ...    BIC      r0,r0,#2
        0x1007a324:    6490        .d      STR      r0,[r2,#0x48]
        0x1007a326:    6c90        .l      LDR      r0,[r2,#0x48]
        0x1007a328:    f4406000    @..`    ORR      r0,r0,#0x800
        0x1007a32c:    6490        .d      STR      r0,[r2,#0x48]
        0x1007a32e:    e022        ".      B        0x1007a376 ; halGPIO_ConfDirection + 182
        0x1007a330:    6cd0        .l      LDR      r0,[r2,#0x4c]
        0x1007a332:    f0200002     ...    BIC      r0,r0,#2
        0x1007a336:    64d0        .d      STR      r0,[r2,#0x4c]
        0x1007a338:    6cd0        .l      LDR      r0,[r2,#0x4c]
        0x1007a33a:    f4406000    @..`    ORR      r0,r0,#0x800
        0x1007a33e:    64d0        .d      STR      r0,[r2,#0x4c]
        0x1007a340:    e019        ..      B        0x1007a376 ; halGPIO_ConfDirection + 182
        0x1007a342:    6dd0        .m      LDR      r0,[r2,#0x5c]
        0x1007a344:    f0200002     ...    BIC      r0,r0,#2
        0x1007a348:    65d0        .e      STR      r0,[r2,#0x5c]
        0x1007a34a:    6dd0        .m      LDR      r0,[r2,#0x5c]
        0x1007a34c:    f4406000    @..`    ORR      r0,r0,#0x800
        0x1007a350:    65d0        .e      STR      r0,[r2,#0x5c]
        0x1007a352:    e010        ..      B        0x1007a376 ; halGPIO_ConfDirection + 182
        0x1007a354:    6d90        .m      LDR      r0,[r2,#0x58]
        0x1007a356:    f0200002     ...    BIC      r0,r0,#2
        0x1007a35a:    6590        .e      STR      r0,[r2,#0x58]
        0x1007a35c:    6d90        .m      LDR      r0,[r2,#0x58]
        0x1007a35e:    f4406000    @..`    ORR      r0,r0,#0x800
        0x1007a362:    6590        .e      STR      r0,[r2,#0x58]
        0x1007a364:    e007        ..      B        0x1007a376 ; halGPIO_ConfDirection + 182
        0x1007a366:    6d50        Pm      LDR      r0,[r2,#0x54]
        0x1007a368:    f0200002     ...    BIC      r0,r0,#2
        0x1007a36c:    6550        Pe      STR      r0,[r2,#0x54]
        0x1007a36e:    6d50        Pm      LDR      r0,[r2,#0x54]
        0x1007a370:    f4406000    @..`    ORR      r0,r0,#0x800
        0x1007a374:    6550        Pe      STR      r0,[r2,#0x54]
        0x1007a376:    f8c35094    ...P    STR      r5,[r3,#0x94]
        0x1007a37a:    e041        A.      B        0x1007a400 ; halGPIO_ConfDirection + 320
        0x1007a37c:    2c1b        .,      CMP      r4,#0x1b
        0x1007a37e:    d008        ..      BEQ      0x1007a392 ; halGPIO_ConfDirection + 210
        0x1007a380:    2c1c        .,      CMP      r4,#0x1c
        0x1007a382:    d00a        ..      BEQ      0x1007a39a ; halGPIO_ConfDirection + 218
        0x1007a384:    2c1d        .,      CMP      r4,#0x1d
        0x1007a386:    d00c        ..      BEQ      0x1007a3a2 ; halGPIO_ConfDirection + 226
        0x1007a388:    2c1e        .,      CMP      r4,#0x1e
        0x1007a38a:    d00e        ..      BEQ      0x1007a3aa ; halGPIO_ConfDirection + 234
        0x1007a38c:    2c1f        .,      CMP      r4,#0x1f
        0x1007a38e:    d010        ..      BEQ      0x1007a3b2 ; halGPIO_ConfDirection + 242
        0x1007a390:    e012        ..      B        0x1007a3b8 ; halGPIO_ConfDirection + 248
        0x1007a392:    6c90        .l      LDR      r0,[r2,#0x48]
        0x1007a394:    4330        0C      ORRS     r0,r0,r6
        0x1007a396:    6490        .d      STR      r0,[r2,#0x48]
        0x1007a398:    e00e        ..      B        0x1007a3b8 ; halGPIO_ConfDirection + 248
        0x1007a39a:    6cd0        .l      LDR      r0,[r2,#0x4c]
        0x1007a39c:    4330        0C      ORRS     r0,r0,r6
        0x1007a39e:    64d0        .d      STR      r0,[r2,#0x4c]
        0x1007a3a0:    e00a        ..      B        0x1007a3b8 ; halGPIO_ConfDirection + 248
        0x1007a3a2:    6dd0        .m      LDR      r0,[r2,#0x5c]
        0x1007a3a4:    4330        0C      ORRS     r0,r0,r6
        0x1007a3a6:    65d0        .e      STR      r0,[r2,#0x5c]
        0x1007a3a8:    e006        ..      B        0x1007a3b8 ; halGPIO_ConfDirection + 248
        0x1007a3aa:    6d90        .m      LDR      r0,[r2,#0x58]
        0x1007a3ac:    4330        0C      ORRS     r0,r0,r6
        0x1007a3ae:    6590        .e      STR      r0,[r2,#0x58]
        0x1007a3b0:    e002        ..      B        0x1007a3b8 ; halGPIO_ConfDirection + 248
        0x1007a3b2:    6d50        Pm      LDR      r0,[r2,#0x54]
        0x1007a3b4:    4330        0C      ORRS     r0,r0,r6
        0x1007a3b6:    6550        Pe      STR      r0,[r2,#0x54]
        0x1007a3b8:    f8c35098    ...P    STR      r5,[r3,#0x98]
        0x1007a3bc:    e020         .      B        0x1007a400 ; halGPIO_ConfDirection + 320
        0x1007a3be:    e7ff        ..      B        0x1007a3c0 ; halGPIO_ConfDirection + 256
        0x1007a3c0:    2901        .)      CMP      r1,#1
        0x1007a3c2:    d006        ..      BEQ      0x1007a3d2 ; halGPIO_ConfDirection + 274
        0x1007a3c4:    b1bc        ..      CBZ      r4,0x1007a3f6 ; halGPIO_ConfDirection + 310
        0x1007a3c6:    f8d30104    ....    LDR      r0,[r3,#0x104]
        0x1007a3ca:    4328        (C      ORRS     r0,r0,r5
        0x1007a3cc:    f8c30104    ....    STR      r0,[r3,#0x104]
        0x1007a3d0:    e014        ..      B        0x1007a3fc ; halGPIO_ConfDirection + 316
        0x1007a3d2:    b12c        ,.      CBZ      r4,0x1007a3e0 ; halGPIO_ConfDirection + 288
        0x1007a3d4:    f8d30104    ....    LDR      r0,[r3,#0x104]
        0x1007a3d8:    43a8        .C      BICS     r0,r0,r5
        0x1007a3da:    f8c30104    ....    STR      r0,[r3,#0x104]
        0x1007a3de:    e007        ..      B        0x1007a3f0 ; halGPIO_ConfDirection + 304
        0x1007a3e0:    6d10        .m      LDR      r0,[r2,#0x50]
        0x1007a3e2:    f0200002     ...    BIC      r0,r0,#2
        0x1007a3e6:    6510        .e      STR      r0,[r2,#0x50]
        0x1007a3e8:    6d10        .m      LDR      r0,[r2,#0x50]
        0x1007a3ea:    f4406000    @..`    ORR      r0,r0,#0x800
        0x1007a3ee:    6510        .e      STR      r0,[r2,#0x50]
        0x1007a3f0:    f8c350a4    ...P    STR      r5,[r3,#0xa4]
        0x1007a3f4:    e004        ..      B        0x1007a400 ; halGPIO_ConfDirection + 320
        0x1007a3f6:    6d10        .m      LDR      r0,[r2,#0x50]
        0x1007a3f8:    4330        0C      ORRS     r0,r0,r6
        0x1007a3fa:    6510        .e      STR      r0,[r2,#0x50]
        0x1007a3fc:    f8c350a8    ...P    STR      r5,[r3,#0xa8]
        0x1007a400:    2000        .       MOVS     r0,#0
        0x1007a402:    bdf0        ..      POP      {r4-r7,pc}
    $d
        0x1007a404:    81023000    .0..    DCD    2164404224
        0x1007a408:    8300b000    ....    DCD    2197860352
    $t
    i.halGPO_Write
    halGPO_Write
        0x1007a40c:    f3c0134f    ..O.    UBFX     r3,r0,#5,#16
        0x1007a410:    2201        ."      MOVS     r2,#1
        0x1007a412:    f000001f    ....    AND      r0,r0,#0x1f
        0x1007a416:    4082        .@      LSLS     r2,r2,r0
        0x1007a418:    4808        .H      LDR      r0,[pc,#32] ; [0x1007a43c] = 0x8300b000
        0x1007a41a:    b11b        ..      CBZ      r3,0x1007a424 ; halGPO_Write + 24
        0x1007a41c:    2b01        .+      CMP      r3,#1
        0x1007a41e:    d006        ..      BEQ      0x1007a42e ; halGPO_Write + 34
        0x1007a420:    17c0        ..      ASRS     r0,r0,#31
        0x1007a422:    4770        pG      BX       lr
        0x1007a424:    b109        ..      CBZ      r1,0x1007a42a ; halGPO_Write + 30
        0x1007a426:    6642        Bf      STR      r2,[r0,#0x64]
        0x1007a428:    e005        ..      B        0x1007a436 ; halGPO_Write + 42
        0x1007a42a:    6682        .f      STR      r2,[r0,#0x68]
        0x1007a42c:    e003        ..      B        0x1007a436 ; halGPO_Write + 42
        0x1007a42e:    b109        ..      CBZ      r1,0x1007a434 ; halGPO_Write + 40
        0x1007a430:    6742        Bg      STR      r2,[r0,#0x74]
        0x1007a432:    e000        ..      B        0x1007a436 ; halGPO_Write + 42
        0x1007a434:    6782        .g      STR      r2,[r0,#0x78]
        0x1007a436:    2000        .       MOVS     r0,#0
        0x1007a438:    4770        pG      BX       lr
    $d
        0x1007a43a:    0000        ..      DCW    0
        0x1007a43c:    8300b000    ....    DCD    2197860352
    $t
    i.halPinmuxTopOnPadFunc
    halPinmuxTopOnPadFunc
        0x1007a440:    b430        0.      PUSH     {r4,r5}
        0x1007a442:    4a7c        |J      LDR      r2,[pc,#496] ; [0x1007a634] = 0x81023000
        0x1007a444:    281e        .(      CMP      r0,#0x1e
        0x1007a446:    d070        p.      BEQ      0x1007a52a ; halPinmuxTopOnPadFunc + 234
        0x1007a448:    dc13        ..      BGT      0x1007a472 ; halPinmuxTopOnPadFunc + 50
        0x1007a44a:    2807        .(      CMP      r0,#7
        0x1007a44c:    d061        a.      BEQ      0x1007a512 ; halPinmuxTopOnPadFunc + 210
        0x1007a44e:    dc07        ..      BGT      0x1007a460 ; halPinmuxTopOnPadFunc + 32
        0x1007a450:    2807        .(      CMP      r0,#7
        0x1007a452:    d233        3.      BCS      0x1007a4bc ; halPinmuxTopOnPadFunc + 124
        0x1007a454:    e8dff000    ....    TBB      [pc,r0]
    $d
        0x1007a458:    453f3934    49?E    DCD    1161771316
        0x1007a45c:    0057514b    KQW.    DCD    5722443
    $t
        0x1007a460:    f1a00318    ....    SUB      r3,r0,#0x18
        0x1007a464:    2b06        .+      CMP      r3,#6
        0x1007a466:    d229        ).      BCS      0x1007a4bc ; halPinmuxTopOnPadFunc + 124
        0x1007a468:    e8dff003    ....    TBB      [pc,r3]
    $d
        0x1007a46c:    6d66605a    Z`fm    DCD    1835425882
        0x1007a470:    847d        }.      DCW    33917
    $t
        0x1007a472:    2825        %(      CMP      r0,#0x25
        0x1007a474:    d074        t.      BEQ      0x1007a560 ; halPinmuxTopOnPadFunc + 288
        0x1007a476:    dc08        ..      BGT      0x1007a48a ; halPinmuxTopOnPadFunc + 74
        0x1007a478:    f1a0031f    ....    SUB      r3,r0,#0x1f
        0x1007a47c:    2b06        .+      CMP      r3,#6
        0x1007a47e:    d21d        ..      BCS      0x1007a4bc ; halPinmuxTopOnPadFunc + 124
        0x1007a480:    e8dff003    ....    TBB      [pc,r3]
    $d
        0x1007a484:    a7a1968c    ....    DCD    2812384908
        0x1007a488:    b3ad        ..      DCW    45997
    $t
        0x1007a48a:    283a        :(      CMP      r0,#0x3a
        0x1007a48c:    d069        i.      BEQ      0x1007a562 ; halPinmuxTopOnPadFunc + 290
        0x1007a48e:    dc0b        ..      BGT      0x1007a4a8 ; halPinmuxTopOnPadFunc + 104
        0x1007a490:    2826        &(      CMP      r0,#0x26
        0x1007a492:    d067        g.      BEQ      0x1007a564 ; halPinmuxTopOnPadFunc + 292
        0x1007a494:    2827        '(      CMP      r0,#0x27
        0x1007a496:    d074        t.      BEQ      0x1007a582 ; halPinmuxTopOnPadFunc + 322
        0x1007a498:    2839        9(      CMP      r0,#0x39
        0x1007a49a:    d10f        ..      BNE      0x1007a4bc ; halPinmuxTopOnPadFunc + 124
        0x1007a49c:    6bd0        .k      LDR      r0,[r2,#0x3c]
        0x1007a49e:    f02000f0     ...    BIC      r0,r0,#0xf0
        0x1007a4a2:    ea401001    @...    ORR      r0,r0,r1,LSL #4
        0x1007a4a6:    e008        ..      B        0x1007a4ba ; halPinmuxTopOnPadFunc + 122
        0x1007a4a8:    283b        ;(      CMP      r0,#0x3b
        0x1007a4aa:    d06b        k.      BEQ      0x1007a584 ; halPinmuxTopOnPadFunc + 324
        0x1007a4ac:    283c        <(      CMP      r0,#0x3c
        0x1007a4ae:    d105        ..      BNE      0x1007a4bc ; halPinmuxTopOnPadFunc + 124
        0x1007a4b0:    6bd0        .k      LDR      r0,[r2,#0x3c]
        0x1007a4b2:    f4202070     .p     BIC      r0,r0,#0xf0000
        0x1007a4b6:    ea404001    @..@    ORR      r0,r0,r1,LSL #16
        0x1007a4ba:    63d0        .c      STR      r0,[r2,#0x3c]
        0x1007a4bc:    bc30        0.      POP      {r4,r5}
        0x1007a4be:    4770        pG      BX       lr
        0x1007a4c0:    6a10        .j      LDR      r0,[r2,#0x20]
        0x1007a4c2:    f020000f     ...    BIC      r0,r0,#0xf
        0x1007a4c6:    4308        .C      ORRS     r0,r0,r1
        0x1007a4c8:    e028        (.      B        0x1007a51c ; halPinmuxTopOnPadFunc + 220
        0x1007a4ca:    6a10        .j      LDR      r0,[r2,#0x20]
        0x1007a4cc:    f02000f0     ...    BIC      r0,r0,#0xf0
        0x1007a4d0:    ea401001    @...    ORR      r0,r0,r1,LSL #4
        0x1007a4d4:    e022        ".      B        0x1007a51c ; halPinmuxTopOnPadFunc + 220
        0x1007a4d6:    6a10        .j      LDR      r0,[r2,#0x20]
        0x1007a4d8:    f4206070     .p`    BIC      r0,r0,#0xf00
        0x1007a4dc:    ea402001    @..     ORR      r0,r0,r1,LSL #8
        0x1007a4e0:    e01c        ..      B        0x1007a51c ; halPinmuxTopOnPadFunc + 220
        0x1007a4e2:    6a10        .j      LDR      r0,[r2,#0x20]
        0x1007a4e4:    f4204070     .p@    BIC      r0,r0,#0xf000
        0x1007a4e8:    ea403001    @..0    ORR      r0,r0,r1,LSL #12
        0x1007a4ec:    e016        ..      B        0x1007a51c ; halPinmuxTopOnPadFunc + 220
        0x1007a4ee:    6a10        .j      LDR      r0,[r2,#0x20]
        0x1007a4f0:    f4202070     .p     BIC      r0,r0,#0xf0000
        0x1007a4f4:    ea404001    @..@    ORR      r0,r0,r1,LSL #16
        0x1007a4f8:    e010        ..      B        0x1007a51c ; halPinmuxTopOnPadFunc + 220
        0x1007a4fa:    6a10        .j      LDR      r0,[r2,#0x20]
        0x1007a4fc:    f4200070     .p.    BIC      r0,r0,#0xf00000
        0x1007a500:    ea405001    @..P    ORR      r0,r0,r1,LSL #20
        0x1007a504:    e00a        ..      B        0x1007a51c ; halPinmuxTopOnPadFunc + 220
        0x1007a506:    6a10        .j      LDR      r0,[r2,#0x20]
        0x1007a508:    f0206070     .p`    BIC      r0,r0,#0xf000000
        0x1007a50c:    ea406001    @..`    ORR      r0,r0,r1,LSL #24
        0x1007a510:    e004        ..      B        0x1007a51c ; halPinmuxTopOnPadFunc + 220
        0x1007a512:    6a10        .j      LDR      r0,[r2,#0x20]
        0x1007a514:    f0204070     .p@    BIC      r0,r0,#0xf0000000
        0x1007a518:    ea407001    @..p    ORR      r0,r0,r1,LSL #28
        0x1007a51c:    6210        .b      STR      r0,[r2,#0x20]
        0x1007a51e:    e7cd        ..      B        0x1007a4bc ; halPinmuxTopOnPadFunc + 124
        0x1007a520:    6ad0        .j      LDR      r0,[r2,#0x2c]
        0x1007a522:    f020000f     ...    BIC      r0,r0,#0xf
        0x1007a526:    4308        .C      ORRS     r0,r0,r1
        0x1007a528:    e00b        ..      B        0x1007a542 ; halPinmuxTopOnPadFunc + 258
        0x1007a52a:    e02c        ,.      B        0x1007a586 ; halPinmuxTopOnPadFunc + 326
        0x1007a52c:    6ad0        .j      LDR      r0,[r2,#0x2c]
        0x1007a52e:    f02000f0     ...    BIC      r0,r0,#0xf0
        0x1007a532:    ea401001    @...    ORR      r0,r0,r1,LSL #4
        0x1007a536:    e004        ..      B        0x1007a542 ; halPinmuxTopOnPadFunc + 258
        0x1007a538:    6ad0        .j      LDR      r0,[r2,#0x2c]
        0x1007a53a:    f4206070     .p`    BIC      r0,r0,#0xf00
        0x1007a53e:    ea402001    @..     ORR      r0,r0,r1,LSL #8
        0x1007a542:    62d0        .b      STR      r0,[r2,#0x2c]
        0x1007a544:    e7ba        ..      B        0x1007a4bc ; halPinmuxTopOnPadFunc + 124
        0x1007a546:    6ad3        .j      LDR      r3,[r2,#0x2c]
        0x1007a548:    f4234370    #.pC    BIC      r3,r3,#0xf000
        0x1007a54c:    ea433301    C..3    ORR      r3,r3,r1,LSL #12
        0x1007a550:    62d3        .b      STR      r3,[r2,#0x2c]
        0x1007a552:    2902        .)      CMP      r1,#2
        0x1007a554:    d033        3.      BEQ      0x1007a5be ; halPinmuxTopOnPadFunc + 382
        0x1007a556:    2904        .)      CMP      r1,#4
        0x1007a558:    d031        1.      BEQ      0x1007a5be ; halPinmuxTopOnPadFunc + 382
        0x1007a55a:    2905        .)      CMP      r1,#5
        0x1007a55c:    d02f        /.      BEQ      0x1007a5be ; halPinmuxTopOnPadFunc + 382
        0x1007a55e:    e7ad        ..      B        0x1007a4bc ; halPinmuxTopOnPadFunc + 124
        0x1007a560:    e049        I.      B        0x1007a5f6 ; halPinmuxTopOnPadFunc + 438
        0x1007a562:    e05b        [.      B        0x1007a61c ; halPinmuxTopOnPadFunc + 476
        0x1007a564:    e04d        M.      B        0x1007a602 ; halPinmuxTopOnPadFunc + 450
        0x1007a566:    6ad3        .j      LDR      r3,[r2,#0x2c]
        0x1007a568:    f4232370    #.p#    BIC      r3,r3,#0xf0000
        0x1007a56c:    ea434301    C..C    ORR      r3,r3,r1,LSL #16
        0x1007a570:    62d3        .b      STR      r3,[r2,#0x2c]
        0x1007a572:    e7f0        ..      B        0x1007a556 ; halPinmuxTopOnPadFunc + 278
        0x1007a574:    6ad3        .j      LDR      r3,[r2,#0x2c]
        0x1007a576:    f4230370    #.p.    BIC      r3,r3,#0xf00000
        0x1007a57a:    ea435301    C..S    ORR      r3,r3,r1,LSL #20
        0x1007a57e:    62d3        .b      STR      r3,[r2,#0x2c]
        0x1007a580:    e013        ..      B        0x1007a5aa ; halPinmuxTopOnPadFunc + 362
        0x1007a582:    e044        D.      B        0x1007a60e ; halPinmuxTopOnPadFunc + 462
        0x1007a584:    e050        P.      B        0x1007a628 ; halPinmuxTopOnPadFunc + 488
        0x1007a586:    6ad3        .j      LDR      r3,[r2,#0x2c]
        0x1007a588:    f0236370    #.pc    BIC      r3,r3,#0xf000000
        0x1007a58c:    ea436301    C..c    ORR      r3,r3,r1,LSL #24
        0x1007a590:    62d3        .b      STR      r3,[r2,#0x2c]
        0x1007a592:    2904        .)      CMP      r1,#4
        0x1007a594:    d013        ..      BEQ      0x1007a5be ; halPinmuxTopOnPadFunc + 382
        0x1007a596:    2907        .)      CMP      r1,#7
        0x1007a598:    d011        ..      BEQ      0x1007a5be ; halPinmuxTopOnPadFunc + 382
        0x1007a59a:    e78f        ..      B        0x1007a4bc ; halPinmuxTopOnPadFunc + 124
        0x1007a59c:    6ad3        .j      LDR      r3,[r2,#0x2c]
        0x1007a59e:    f0234370    #.pC    BIC      r3,r3,#0xf0000000
        0x1007a5a2:    ea437301    C..s    ORR      r3,r3,r1,LSL #28
        0x1007a5a6:    62d3        .b      STR      r3,[r2,#0x2c]
        0x1007a5a8:    e007        ..      B        0x1007a5ba ; halPinmuxTopOnPadFunc + 378
        0x1007a5aa:    2906        .)      CMP      r1,#6
        0x1007a5ac:    d007        ..      BEQ      0x1007a5be ; halPinmuxTopOnPadFunc + 382
        0x1007a5ae:    e785        ..      B        0x1007a4bc ; halPinmuxTopOnPadFunc + 124
        0x1007a5b0:    6b13        .k      LDR      r3,[r2,#0x30]
        0x1007a5b2:    f023030f    #...    BIC      r3,r3,#0xf
        0x1007a5b6:    430b        .C      ORRS     r3,r3,r1
        0x1007a5b8:    6313        .c      STR      r3,[r2,#0x30]
        0x1007a5ba:    2904        .)      CMP      r1,#4
        0x1007a5bc:    d1f5        ..      BNE      0x1007a5aa ; halPinmuxTopOnPadFunc + 362
        0x1007a5be:    bc30        0.      POP      {r4,r5}
        0x1007a5c0:    2100        .!      MOVS     r1,#0
        0x1007a5c2:    f7ffbe7d    ..}.    B.W      halGPIO_ConfDirection ; 0x1007a2c0
        0x1007a5c6:    6b10        .k      LDR      r0,[r2,#0x30]
        0x1007a5c8:    f02000f0     ...    BIC      r0,r0,#0xf0
        0x1007a5cc:    ea401001    @...    ORR      r0,r0,r1,LSL #4
        0x1007a5d0:    e022        ".      B        0x1007a618 ; halPinmuxTopOnPadFunc + 472
        0x1007a5d2:    6b10        .k      LDR      r0,[r2,#0x30]
        0x1007a5d4:    f4206070     .p`    BIC      r0,r0,#0xf00
        0x1007a5d8:    ea402001    @..     ORR      r0,r0,r1,LSL #8
        0x1007a5dc:    e01c        ..      B        0x1007a618 ; halPinmuxTopOnPadFunc + 472
        0x1007a5de:    6b10        .k      LDR      r0,[r2,#0x30]
        0x1007a5e0:    f4204070     .p@    BIC      r0,r0,#0xf000
        0x1007a5e4:    ea403001    @..0    ORR      r0,r0,r1,LSL #12
        0x1007a5e8:    e016        ..      B        0x1007a618 ; halPinmuxTopOnPadFunc + 472
        0x1007a5ea:    6b10        .k      LDR      r0,[r2,#0x30]
        0x1007a5ec:    f4202070     .p     BIC      r0,r0,#0xf0000
        0x1007a5f0:    ea404001    @..@    ORR      r0,r0,r1,LSL #16
        0x1007a5f4:    e010        ..      B        0x1007a618 ; halPinmuxTopOnPadFunc + 472
        0x1007a5f6:    6b10        .k      LDR      r0,[r2,#0x30]
        0x1007a5f8:    f4200070     .p.    BIC      r0,r0,#0xf00000
        0x1007a5fc:    ea405001    @..P    ORR      r0,r0,r1,LSL #20
        0x1007a600:    e00a        ..      B        0x1007a618 ; halPinmuxTopOnPadFunc + 472
        0x1007a602:    6b10        .k      LDR      r0,[r2,#0x30]
        0x1007a604:    f0206070     .p`    BIC      r0,r0,#0xf000000
        0x1007a608:    ea406001    @..`    ORR      r0,r0,r1,LSL #24
        0x1007a60c:    e004        ..      B        0x1007a618 ; halPinmuxTopOnPadFunc + 472
        0x1007a60e:    6b10        .k      LDR      r0,[r2,#0x30]
        0x1007a610:    f0204070     .p@    BIC      r0,r0,#0xf0000000
        0x1007a614:    ea407001    @..p    ORR      r0,r0,r1,LSL #28
        0x1007a618:    6310        .c      STR      r0,[r2,#0x30]
        0x1007a61a:    e74f        O.      B        0x1007a4bc ; halPinmuxTopOnPadFunc + 124
        0x1007a61c:    6bd0        .k      LDR      r0,[r2,#0x3c]
        0x1007a61e:    f4206070     .p`    BIC      r0,r0,#0xf00
        0x1007a622:    ea402001    @..     ORR      r0,r0,r1,LSL #8
        0x1007a626:    e748        H.      B        0x1007a4ba ; halPinmuxTopOnPadFunc + 122
        0x1007a628:    6bd0        .k      LDR      r0,[r2,#0x3c]
        0x1007a62a:    f4204070     .p@    BIC      r0,r0,#0xf000
        0x1007a62e:    ea403001    @..0    ORR      r0,r0,r1,LSL #12
        0x1007a632:    e742        B.      B        0x1007a4ba ; halPinmuxTopOnPadFunc + 122
    $d
        0x1007a634:    81023000    .0..    DCD    2164404224
    $t
    i.halUART_Get_VFIFO_Length
    halUART_Get_VFIFO_Length
        0x1007a638:    b120         .      CBZ      r0,0x1007a644 ; halUART_Get_VFIFO_Length + 12
        0x1007a63a:    480c        .H      LDR      r0,[pc,#48] ; [0x1007a66c] = 0x83011000
        0x1007a63c:    b181        ..      CBZ      r1,0x1007a660 ; halUART_Get_VFIFO_Length + 40
        0x1007a63e:    f8b00138    ..8.    LDRH     r0,[r0,#0x138]
        0x1007a642:    e00b        ..      B        0x1007a65c ; halUART_Get_VFIFO_Length + 36
        0x1007a644:    b119        ..      CBZ      r1,0x1007a64e ; halUART_Get_VFIFO_Length + 22
        0x1007a646:    4809        .H      LDR      r0,[pc,#36] ; [0x1007a66c] = 0x83011000
        0x1007a648:    38c8        .8      SUBS     r0,r0,#0xc8
        0x1007a64a:    8800        ..      LDRH     r0,[r0,#0]
        0x1007a64c:    e006        ..      B        0x1007a65c ; halUART_Get_VFIFO_Length + 36
        0x1007a64e:    4808        .H      LDR      r0,[pc,#32] ; [0x1007a670] = 0x83010e44
        0x1007a650:    8800        ..      LDRH     r0,[r0,#0]
        0x1007a652:    4907        .I      LDR      r1,[pc,#28] ; [0x1007a670] = 0x83010e44
        0x1007a654:    6010        .`      STR      r0,[r2,#0]
        0x1007a656:    390c        .9      SUBS     r1,r1,#0xc
        0x1007a658:    8809        ..      LDRH     r1,[r1,#0]
        0x1007a65a:    1a40        @.      SUBS     r0,r0,r1
        0x1007a65c:    6010        .`      STR      r0,[r2,#0]
        0x1007a65e:    4770        pG      BX       lr
        0x1007a660:    f8b01044    ..D.    LDRH     r1,[r0,#0x44]
        0x1007a664:    6011        .`      STR      r1,[r2,#0]
        0x1007a666:    8f00        ..      LDRH     r0,[r0,#0x38]
        0x1007a668:    1a08        ..      SUBS     r0,r1,r0
        0x1007a66a:    e7f7        ..      B        0x1007a65c ; halUART_Get_VFIFO_Length + 36
    $d
        0x1007a66c:    83011000    ....    DCD    2197884928
        0x1007a670:    83010e44    D...    DCD    2197884484
    $t
    i.halUART_HWInit
    halUART_HWInit
        0x1007a674:    b538        8.      PUSH     {r3-r5,lr}
        0x1007a676:    4604        .F      MOV      r4,r0
        0x1007a678:    2000        .       MOVS     r0,#0
        0x1007a67a:    4603        .F      MOV      r3,r0
        0x1007a67c:    9000        ..      STR      r0,[sp,#0]
        0x1007a67e:    2203        ."      MOVS     r2,#3
        0x1007a680:    f44f31e1    O..1    MOV      r1,#0x1c200
        0x1007a684:    4620         F      MOV      r0,r4
        0x1007a686:    f000f80f    ....    BL       halUART_SetFormat ; 0x1007a6a8
        0x1007a68a:    b13c        <.      CBZ      r4,0x1007a69c ; halUART_HWInit + 40
        0x1007a68c:    2c01        .,      CMP      r4,#1
        0x1007a68e:    d104        ..      BNE      0x1007a69a ; halUART_HWInit + 38
        0x1007a690:    4803        .H      LDR      r0,[pc,#12] ; [0x1007a6a0] = 0x83040000
        0x1007a692:    6cc1        .l      LDR      r1,[r0,#0x4c]
        0x1007a694:    f0410101    A...    ORR      r1,r1,#1
        0x1007a698:    64c1        .d      STR      r1,[r0,#0x4c]
        0x1007a69a:    bd38        8.      POP      {r3-r5,pc}
        0x1007a69c:    4801        .H      LDR      r0,[pc,#4] ; [0x1007a6a4] = 0x83030000
        0x1007a69e:    e7f8        ..      B        0x1007a692 ; halUART_HWInit + 30
    $d
        0x1007a6a0:    83040000    ....    DCD    2198077440
        0x1007a6a4:    83030000    ....    DCD    2198011904
    $t
    i.halUART_SetFormat
    halUART_SetFormat
        0x1007a6a8:    e92d4ff0    -..O    PUSH     {r4-r11,lr}
        0x1007a6ac:    b08d        ..      SUB      sp,sp,#0x34
        0x1007a6ae:    4691        .F      MOV      r9,r2
        0x1007a6b0:    460e        .F      MOV      r6,r1
        0x1007a6b2:    4607        .F      MOV      r7,r0
        0x1007a6b4:    469a        .F      MOV      r10,r3
        0x1007a6b6:    4c32        2L      LDR      r4,[pc,#200] ; [0x1007a780] = 0x83030000
        0x1007a6b8:    2218        ."      MOVS     r2,#0x18
        0x1007a6ba:    4932        2I      LDR      r1,[pc,#200] ; [0x1007a784] = 0x1007b020
        0x1007a6bc:    4668        hF      MOV      r0,sp
        0x1007a6be:    f8ddb058    ..X.    LDR      r11,[sp,#0x58]
        0x1007a6c2:    f7fefcc3    ....    BL       __aeabi_memcpy ; 0x1007904c
        0x1007a6c6:    492f        /I      LDR      r1,[pc,#188] ; [0x1007a784] = 0x1007b020
        0x1007a6c8:    2218        ."      MOVS     r2,#0x18
        0x1007a6ca:    3118        .1      ADDS     r1,r1,#0x18
        0x1007a6cc:    a806        ..      ADD      r0,sp,#0x18
        0x1007a6ce:    f7fefcbd    ....    BL       __aeabi_memcpy ; 0x1007904c
        0x1007a6d2:    f000fbe5    ....    BL       top_xtal_freq_get ; 0x1007aea0
        0x1007a6d6:    492c        ,I      LDR      r1,[pc,#176] ; [0x1007a788] = 0x200001c8
        0x1007a6d8:    4602        .F      MOV      r2,r0
        0x1007a6da:    6008        .`      STR      r0,[r1,#0]
        0x1007a6dc:    b117        ..      CBZ      r7,0x1007a6e4 ; halUART_SetFormat + 60
        0x1007a6de:    2f01        ./      CMP      r7,#1
        0x1007a6e0:    d100        ..      BNE      0x1007a6e4 ; halUART_SetFormat + 60
        0x1007a6e2:    4c2a        *L      LDR      r4,[pc,#168] ; [0x1007a78c] = 0x83040000
        0x1007a6e4:    2003        .       MOVS     r0,#3
        0x1007a6e6:    6260        `b      STR      r0,[r4,#0x24]
        0x1007a6e8:    f8d4c00c    ....    LDR      r12,[r4,#0xc]
        0x1007a6ec:    f04c0080    L...    ORR      r0,r12,#0x80
        0x1007a6f0:    60e0        .`      STR      r0,[r4,#0xc]
        0x1007a6f2:    fbb2f1f6    ....    UDIV     r1,r2,r6
        0x1007a6f6:    2001        .       MOVS     r0,#1
        0x1007a6f8:    eb002311    ...#    ADD      r3,r0,r1,LSR #8
        0x1007a6fc:    fbb1f0f3    ....    UDIV     r0,r1,r3
        0x1007a700:    1e40        @.      SUBS     r0,r0,#1
        0x1007a702:    f04f38ff    O..8    MOV      r8,#0xffffffff
        0x1007a706:    2803        .(      CMP      r0,#3
        0x1007a708:    d037        7.      BEQ      0x1007a77a ; halUART_SetFormat + 210
        0x1007a70a:    eb080750    ..P.    ADD      r7,r8,r0,LSR #1
        0x1007a70e:    bf00        ..      NOP      
        0x1007a710:    eb020282    ....    ADD      r2,r2,r2,LSL #2
        0x1007a714:    0052        R.      LSLS     r2,r2,#1
        0x1007a716:    fbb2f2f6    ....    UDIV     r2,r2,r6
        0x1007a71a:    fbb2f1f1    ....    UDIV     r1,r2,r1
        0x1007a71e:    4242        BB      RSBS     r2,r0,#0
        0x1007a720:    eb020282    ....    ADD      r2,r2,r2,LSL #2
        0x1007a724:    eb010142    ..B.    ADD      r1,r1,r2,LSL #1
        0x1007a728:    220a        ."      MOVS     r2,#0xa
        0x1007a72a:    390a        .9      SUBS     r1,r1,#0xa
        0x1007a72c:    fbb1f6f2    ....    UDIV     r6,r1,r2
        0x1007a730:    fb021116    ....    MLS      r1,r2,r6,r1
        0x1007a734:    b2da        ..      UXTB     r2,r3
        0x1007a736:    6022        "`      STR      r2,[r4,#0]
        0x1007a738:    f3c32207    ..."    UBFX     r2,r3,#8,#8
        0x1007a73c:    6062        b`      STR      r2,[r4,#4]
        0x1007a73e:    62a0        .b      STR      r0,[r4,#0x28]
        0x1007a740:    62e7        .b      STR      r7,[r4,#0x2c]
        0x1007a742:    a806        ..      ADD      r0,sp,#0x18
        0x1007a744:    f8300011    0...    LDRH     r0,[r0,r1,LSL #1]
        0x1007a748:    65a0        .e      STR      r0,[r4,#0x58]
        0x1007a74a:    f83d0011    =...    LDRH     r0,[sp,r1,LSL #1]
        0x1007a74e:    6560        `e      STR      r0,[r4,#0x54]
        0x1007a750:    f8c4c00c    ....    STR      r12,[r4,#0xc]
        0x1007a754:    2047        G       MOVS     r0,#0x47
        0x1007a756:    60a0        .`      STR      r0,[r4,#8]
        0x1007a758:    89a0        ..      LDRH     r0,[r4,#0xc]
        0x1007a75a:    f0200003     ...    BIC      r0,r0,#3
        0x1007a75e:    ea400009    @...    ORR      r0,r0,r9
        0x1007a762:    f0200004     ...    BIC      r0,r0,#4
        0x1007a766:    ea40000b    @...    ORR      r0,r0,r11
        0x1007a76a:    f0200038     .8.    BIC      r0,r0,#0x38
        0x1007a76e:    ea40000a    @...    ORR      r0,r0,r10
        0x1007a772:    81a0        ..      STRH     r0,[r4,#0xc]
        0x1007a774:    b00d        ..      ADD      sp,sp,#0x34
        0x1007a776:    e8bd8ff0    ....    POP      {r4-r11,pc}
        0x1007a77a:    2700        .'      MOVS     r7,#0
        0x1007a77c:    e7c8        ..      B        0x1007a710 ; halUART_SetFormat + 104
    $d
        0x1007a77e:    0000        ..      DCW    0
        0x1007a780:    83030000    ....    DCD    2198011904
        0x1007a784:    1007b020     ...    DCD    268939296
        0x1007a788:    200001c8    ...     DCD    536871368
        0x1007a78c:    83040000    ....    DCD    2198077440
    $t
    i.hal_gpio_get_input
    hal_gpio_get_input
        0x1007a790:    b51c        ..      PUSH     {r2-r4,lr}
        0x1007a792:    000c        ..      MOVS     r4,r1
        0x1007a794:    d004        ..      BEQ      0x1007a7a0 ; hal_gpio_get_input + 16
        0x1007a796:    283d        =(      CMP      r0,#0x3d
        0x1007a798:    d305        ..      BCC      0x1007a7a6 ; hal_gpio_get_input + 22
        0x1007a79a:    f06f0001    o...    MVN      r0,#1
        0x1007a79e:    bd1c        ..      POP      {r2-r4,pc}
        0x1007a7a0:    f04f30ff    O..0    MOV      r0,#0xffffffff
        0x1007a7a4:    bd1c        ..      POP      {r2-r4,pc}
        0x1007a7a6:    4601        .F      MOV      r1,r0
        0x1007a7a8:    4668        hF      MOV      r0,sp
        0x1007a7aa:    f7fffd71    ..q.    BL       gpio_get_status ; 0x1007a290
        0x1007a7ae:    9801        ..      LDR      r0,[sp,#4]
        0x1007a7b0:    0a00        ..      LSRS     r0,r0,#8
        0x1007a7b2:    7020         p      STRB     r0,[r4,#0]
        0x1007a7b4:    2000        .       MOVS     r0,#0
        0x1007a7b6:    bd1c        ..      POP      {r2-r4,pc}
    i.hal_gpio_init
    hal_gpio_init
        0x1007a7b8:    2000        .       MOVS     r0,#0
        0x1007a7ba:    4770        pG      BX       lr
    i.hal_gpio_set_direction
    hal_gpio_set_direction
        0x1007a7bc:    b510        ..      PUSH     {r4,lr}
        0x1007a7be:    283d        =(      CMP      r0,#0x3d
        0x1007a7c0:    d302        ..      BCC      0x1007a7c8 ; hal_gpio_set_direction + 12
        0x1007a7c2:    f06f0001    o...    MVN      r0,#1
        0x1007a7c6:    bd10        ..      POP      {r4,pc}
        0x1007a7c8:    f7fffd60    ..`.    BL       gpio_direction ; 0x1007a28c
        0x1007a7cc:    2800        .(      CMP      r0,#0
        0x1007a7ce:    db01        ..      BLT      0x1007a7d4 ; hal_gpio_set_direction + 24
        0x1007a7d0:    2000        .       MOVS     r0,#0
        0x1007a7d2:    bd10        ..      POP      {r4,pc}
        0x1007a7d4:    f06f0002    o...    MVN      r0,#2
        0x1007a7d8:    bd10        ..      POP      {r4,pc}
    i.hal_gpio_set_output
    hal_gpio_set_output
        0x1007a7da:    b510        ..      PUSH     {r4,lr}
        0x1007a7dc:    283d        =(      CMP      r0,#0x3d
        0x1007a7de:    d302        ..      BCC      0x1007a7e6 ; hal_gpio_set_output + 12
        0x1007a7e0:    f06f0001    o...    MVN      r0,#1
        0x1007a7e4:    bd10        ..      POP      {r4,pc}
        0x1007a7e6:    f7fffd68    ..h.    BL       gpio_write ; 0x1007a2ba
        0x1007a7ea:    2800        .(      CMP      r0,#0
        0x1007a7ec:    db01        ..      BLT      0x1007a7f2 ; hal_gpio_set_output + 24
        0x1007a7ee:    2000        .       MOVS     r0,#0
        0x1007a7f0:    bd10        ..      POP      {r4,pc}
        0x1007a7f2:    f06f0002    o...    MVN      r0,#2
        0x1007a7f6:    bd10        ..      POP      {r4,pc}
    i.hal_gpt_delay_ms
    hal_gpt_delay_ms
        0x1007a7f8:    b570        p.      PUSH     {r4-r6,lr}
        0x1007a7fa:    4c08        .L      LDR      r4,[pc,#32] ; [0x1007a81c] = 0x20000538
        0x1007a7fc:    4605        .F      MOV      r5,r0
        0x1007a7fe:    f8941020    .. .    LDRB     r1,[r4,#0x20]
        0x1007a802:    2901        .)      CMP      r1,#1
        0x1007a804:    d001        ..      BEQ      0x1007a80a ; hal_gpt_delay_ms + 18
        0x1007a806:    f7fefeef    ....    BL       CM4_GPT2Init ; 0x100795e8
        0x1007a80a:    4628        (F      MOV      r0,r5
        0x1007a80c:    f7fffcc4    ....    BL       delay_ms ; 0x1007a198
        0x1007a810:    2001        .       MOVS     r0,#1
        0x1007a812:    f8840020    .. .    STRB     r0,[r4,#0x20]
        0x1007a816:    2000        .       MOVS     r0,#0
        0x1007a818:    bd70        p.      POP      {r4-r6,pc}
    $d
        0x1007a81a:    0000        ..      DCW    0
        0x1007a81c:    20000538    8..     DCD    536872248
    $t
    i.hal_gpt_delay_us
    hal_gpt_delay_us
        0x1007a820:    b570        p.      PUSH     {r4-r6,lr}
        0x1007a822:    4c08        .L      LDR      r4,[pc,#32] ; [0x1007a844] = 0x20000538
        0x1007a824:    4605        .F      MOV      r5,r0
        0x1007a826:    f8941040    ..@.    LDRB     r1,[r4,#0x40]
        0x1007a82a:    2901        .)      CMP      r1,#1
        0x1007a82c:    d001        ..      BEQ      0x1007a832 ; hal_gpt_delay_us + 18
        0x1007a82e:    f7fefee0    ....    BL       CM4_GPT4Init ; 0x100795f2
        0x1007a832:    4628        (F      MOV      r0,r5
        0x1007a834:    f7fffcdc    ....    BL       delay_us ; 0x1007a1f0
        0x1007a838:    2001        .       MOVS     r0,#1
        0x1007a83a:    f8840040    ..@.    STRB     r0,[r4,#0x40]
        0x1007a83e:    2000        .       MOVS     r0,#0
        0x1007a840:    bd70        p.      POP      {r4-r6,pc}
    $d
        0x1007a842:    0000        ..      DCW    0
        0x1007a844:    20000538    8..     DCD    536872248
    $t
    i.hal_nvic_enable_irq
    hal_nvic_enable_irq
        0x1007a848:    2860        `(      CMP      r0,#0x60
        0x1007a84a:    d302        ..      BCC      0x1007a852 ; hal_nvic_enable_irq + 10
        0x1007a84c:    f06f0002    o...    MVN      r0,#2
        0x1007a850:    4770        pG      BX       lr
        0x1007a852:    f000021f    ....    AND      r2,r0,#0x1f
        0x1007a856:    2101        .!      MOVS     r1,#1
        0x1007a858:    4091        .@      LSLS     r1,r1,r2
        0x1007a85a:    0940        @.      LSRS     r0,r0,#5
        0x1007a85c:    0080        ..      LSLS     r0,r0,#2
        0x1007a85e:    f10020e0    ...     ADD      r0,r0,#0xe000e000
        0x1007a862:    f8c01100    ....    STR      r1,[r0,#0x100]
        0x1007a866:    2000        .       MOVS     r0,#0
        0x1007a868:    4770        pG      BX       lr
        0x1007a86a:    0000        ..      MOVS     r0,r0
    i.hal_nvic_register_isr_handler
    hal_nvic_register_isr_handler
        0x1007a86c:    b570        p.      PUSH     {r4-r6,lr}
        0x1007a86e:    460d        .F      MOV      r5,r1
        0x1007a870:    4604        .F      MOV      r4,r0
        0x1007a872:    2860        `(      CMP      r0,#0x60
        0x1007a874:    d212        ..      BCS      0x1007a89c ; hal_nvic_register_isr_handler + 48
        0x1007a876:    b18d        ..      CBZ      r5,0x1007a89c ; hal_nvic_register_isr_handler + 48
        0x1007a878:    f7fefeac    ....    BL       $Ven$TT$L$$save_and_set_interrupt_mask ; 0x100795d4
        0x1007a87c:    4606        .F      MOV      r6,r0
        0x1007a87e:    4620         F      MOV      r0,r4
        0x1007a880:    f7feffc4    ....    BL       NVIC_ClearPendingIRQ ; 0x1007980c
        0x1007a884:    4807        .H      LDR      r0,[pc,#28] ; [0x1007a8a4] = 0x200001d8
        0x1007a886:    2100        .!      MOVS     r1,#0
        0x1007a888:    f8405034    @.4P    STR      r5,[r0,r4,LSL #3]
        0x1007a88c:    eb0000c4    ....    ADD      r0,r0,r4,LSL #3
        0x1007a890:    6041        A`      STR      r1,[r0,#4]
        0x1007a892:    4630        0F      MOV      r0,r6
        0x1007a894:    f7fefea3    ....    BL       $Ven$TT$L$$restore_interrupt_mask ; 0x100795de
        0x1007a898:    2000        .       MOVS     r0,#0
        0x1007a89a:    bd70        p.      POP      {r4-r6,pc}
        0x1007a89c:    f06f0001    o...    MVN      r0,#1
        0x1007a8a0:    bd70        p.      POP      {r4-r6,pc}
    $d
        0x1007a8a2:    0000        ..      DCW    0
        0x1007a8a4:    200001d8    ...     DCD    536871384
    $t
    i.hal_nvic_restore_interrupt_mask
    hal_nvic_restore_interrupt_mask
        0x1007a8a8:    b510        ..      PUSH     {r4,lr}
        0x1007a8aa:    f7fefe98    ....    BL       $Ven$TT$L$$restore_interrupt_mask ; 0x100795de
        0x1007a8ae:    2000        .       MOVS     r0,#0
        0x1007a8b0:    bd10        ..      POP      {r4,pc}
    i.hal_nvic_save_and_set_interrupt_mask
    hal_nvic_save_and_set_interrupt_mask
        0x1007a8b2:    b510        ..      PUSH     {r4,lr}
        0x1007a8b4:    4604        .F      MOV      r4,r0
        0x1007a8b6:    f7fefe8d    ....    BL       $Ven$TT$L$$save_and_set_interrupt_mask ; 0x100795d4
        0x1007a8ba:    6020         `      STR      r0,[r4,#0]
        0x1007a8bc:    2000        .       MOVS     r0,#0
        0x1007a8be:    bd10        ..      POP      {r4,pc}
    i.hal_nvic_set_priority
    hal_nvic_set_priority
        0x1007a8c0:    2860        `(      CMP      r0,#0x60
        0x1007a8c2:    d302        ..      BCC      0x1007a8ca ; hal_nvic_set_priority + 10
        0x1007a8c4:    f06f0002    o...    MVN      r0,#2
        0x1007a8c8:    4770        pG      BX       lr
        0x1007a8ca:    0749        I.      LSLS     r1,r1,#29
        0x1007a8cc:    0e09        ..      LSRS     r1,r1,#24
        0x1007a8ce:    2800        .(      CMP      r0,#0
        0x1007a8d0:    da06        ..      BGE      0x1007a8e0 ; hal_nvic_set_priority + 32
        0x1007a8d2:    f000000f    ....    AND      r0,r0,#0xf
        0x1007a8d6:    f10020e0    ...     ADD      r0,r0,#0xe000e000
        0x1007a8da:    f8801d14    ....    STRB     r1,[r0,#0xd14]
        0x1007a8de:    e003        ..      B        0x1007a8e8 ; hal_nvic_set_priority + 40
        0x1007a8e0:    f10020e0    ...     ADD      r0,r0,#0xe000e000
        0x1007a8e4:    f8801400    ....    STRB     r1,[r0,#0x400]
        0x1007a8e8:    2000        .       MOVS     r0,#0
        0x1007a8ea:    4770        pG      BX       lr
    i.hal_pinmux_set_function
    hal_pinmux_set_function
        0x1007a8ec:    b510        ..      PUSH     {r4,lr}
        0x1007a8ee:    283d        =(      CMP      r0,#0x3d
        0x1007a8f0:    d302        ..      BCC      0x1007a8f8 ; hal_pinmux_set_function + 12
        0x1007a8f2:    f06f0001    o...    MVN      r0,#1
        0x1007a8f6:    bd10        ..      POP      {r4,pc}
        0x1007a8f8:    2910        .)      CMP      r1,#0x10
        0x1007a8fa:    d302        ..      BCC      0x1007a902 ; hal_pinmux_set_function + 22
        0x1007a8fc:    f04f30ff    O..0    MOV      r0,#0xffffffff
        0x1007a900:    bd10        ..      POP      {r4,pc}
        0x1007a902:    f000f9df    ....    BL       pinmux_config ; 0x1007acc4
        0x1007a906:    2800        .(      CMP      r0,#0
        0x1007a908:    db01        ..      BLT      0x1007a90e ; hal_pinmux_set_function + 34
        0x1007a90a:    2000        .       MOVS     r0,#0
        0x1007a90c:    bd10        ..      POP      {r4,pc}
        0x1007a90e:    f06f0002    o...    MVN      r0,#2
        0x1007a912:    bd10        ..      POP      {r4,pc}
    i.hal_uart_check_irq_disable
    hal_uart_check_irq_disable
        0x1007a914:    b57c        |.      PUSH     {r2-r6,lr}
        0x1007a916:    4605        .F      MOV      r5,r0
        0x1007a918:    4a11        .J      LDR      r2,[pc,#68] ; [0x1007a960] = 0x200004d8
        0x1007a91a:    eb000045    ..E.    ADD      r0,r0,r5,LSL #1
        0x1007a91e:    eb021400    ....    ADD      r4,r2,r0,LSL #4
        0x1007a922:    3414        .4      ADDS     r4,r4,#0x14
        0x1007a924:    b151        Q.      CBZ      r1,0x1007a93c ; hal_uart_check_irq_disable + 40
        0x1007a926:    466a        jF      MOV      r2,sp
        0x1007a928:    2101        .!      MOVS     r1,#1
        0x1007a92a:    4628        (F      MOV      r0,r5
        0x1007a92c:    f7fffe84    ....    BL       halUART_Get_VFIFO_Length ; 0x1007a638
        0x1007a930:    6960        `i      LDR      r0,[r4,#0x14]
        0x1007a932:    9900        ..      LDR      r1,[sp,#0]
        0x1007a934:    4288        .B      CMP      r0,r1
        0x1007a936:    d812        ..      BHI      0x1007a95e ; hal_uart_check_irq_disable + 74
        0x1007a938:    2101        .!      MOVS     r1,#1
        0x1007a93a:    e00b        ..      B        0x1007a954 ; hal_uart_check_irq_disable + 64
        0x1007a93c:    aa01        ..      ADD      r2,sp,#4
        0x1007a93e:    2100        .!      MOVS     r1,#0
        0x1007a940:    4628        (F      MOV      r0,r5
        0x1007a942:    f7fffe79    ..y.    BL       halUART_Get_VFIFO_Length ; 0x1007a638
        0x1007a946:    e9d40101    ....    LDRD     r0,r1,[r4,#4]
        0x1007a94a:    1a40        @.      SUBS     r0,r0,r1
        0x1007a94c:    9901        ..      LDR      r1,[sp,#4]
        0x1007a94e:    4288        .B      CMP      r0,r1
        0x1007a950:    d805        ..      BHI      0x1007a95e ; hal_uart_check_irq_disable + 74
        0x1007a952:    2100        .!      MOVS     r1,#0
        0x1007a954:    4628        (F      MOV      r0,r5
        0x1007a956:    f000faed    ....    BL       uart_channel_to_dma_channel ; 0x1007af34
        0x1007a95a:    f7fefe69    ..i.    BL       DMA_Vfifo_disable_interrupt ; 0x10079630
        0x1007a95e:    bd7c        |.      POP      {r2-r6,pc}
    $d
        0x1007a960:    200004d8    ...     DCD    536872152
    $t
    i.hal_uart_get_available_receive_bytes
    hal_uart_get_available_receive_bytes
        0x1007a964:    b508        ..      PUSH     {r3,lr}
        0x1007a966:    2100        .!      MOVS     r1,#0
        0x1007a968:    9100        ..      STR      r1,[sp,#0]
        0x1007a96a:    2802        .(      CMP      r0,#2
        0x1007a96c:    d301        ..      BCC      0x1007a972 ; hal_uart_get_available_receive_bytes + 14
        0x1007a96e:    2000        .       MOVS     r0,#0
        0x1007a970:    bd08        ..      POP      {r3,pc}
        0x1007a972:    f000f8cb    ....    BL       hal_uart_translate_port ; 0x1007ab0c
        0x1007a976:    466a        jF      MOV      r2,sp
        0x1007a978:    2101        .!      MOVS     r1,#1
        0x1007a97a:    f7fffe5d    ..].    BL       halUART_Get_VFIFO_Length ; 0x1007a638
        0x1007a97e:    9800        ..      LDR      r0,[sp,#0]
        0x1007a980:    bd08        ..      POP      {r3,pc}
        0x1007a982:    0000        ..      MOVS     r0,r0
    i.hal_uart_init
    hal_uart_init
        0x1007a984:    e92d41f0    -..A    PUSH     {r4-r8,lr}
        0x1007a988:    460d        .F      MOV      r5,r1
        0x1007a98a:    4606        .F      MOV      r6,r0
        0x1007a98c:    f000f82c    ..,.    BL       hal_uart_is_config_valid ; 0x1007a9e8
        0x1007a990:    f06f0703    o...    MVN      r7,#3
        0x1007a994:    b300        ..      CBZ      r0,0x1007a9d8 ; hal_uart_init + 84
        0x1007a996:    4813        .H      LDR      r0,[pc,#76] ; [0x1007a9e4] = 0x200004d8
        0x1007a998:    eb060146    ..F.    ADD      r1,r6,r6,LSL #1
        0x1007a99c:    eb001401    ....    ADD      r4,r0,r1,LSL #4
        0x1007a9a0:    7820         x      LDRB     r0,[r4,#0]
        0x1007a9a2:    2801        .(      CMP      r0,#1
        0x1007a9a4:    d01b        ..      BEQ      0x1007a9de ; hal_uart_init + 90
        0x1007a9a6:    4620         F      MOV      r0,r4
        0x1007a9a8:    2130        0!      MOVS     r1,#0x30
        0x1007a9aa:    f7fefb68    ..h.    BL       __aeabi_memclr ; 0x1007907e
        0x1007a9ae:    6828        (h      LDR      r0,[r5,#0]
        0x1007a9b0:    f8c40001    ....    STR      r0,[r4,#1]
        0x1007a9b4:    2001        .       MOVS     r0,#1
        0x1007a9b6:    7020         p      STRB     r0,[r4,#0]
        0x1007a9b8:    4630        0F      MOV      r0,r6
        0x1007a9ba:    f000f8a7    ....    BL       hal_uart_translate_port ; 0x1007ab0c
        0x1007a9be:    f000fad3    ....    BL       uart_reset_default_value ; 0x1007af68
        0x1007a9c2:    4630        0F      MOV      r0,r6
        0x1007a9c4:    f000f8a2    ....    BL       hal_uart_translate_port ; 0x1007ab0c
        0x1007a9c8:    f7fffe54    ..T.    BL       halUART_HWInit ; 0x1007a674
        0x1007a9cc:    4629        )F      MOV      r1,r5
        0x1007a9ce:    4630        0F      MOV      r0,r6
        0x1007a9d0:    f000f858    ..X.    BL       hal_uart_set_format ; 0x1007aa84
        0x1007a9d4:    2800        .(      CMP      r0,#0
        0x1007a9d6:    d000        ..      BEQ      0x1007a9da ; hal_uart_init + 86
        0x1007a9d8:    4638        8F      MOV      r0,r7
        0x1007a9da:    e8bd81f0    ....    POP      {r4-r8,pc}
        0x1007a9de:    f06f0002    o...    MVN      r0,#2
        0x1007a9e2:    e7fa        ..      B        0x1007a9da ; hal_uart_init + 86
    $d
        0x1007a9e4:    200004d8    ...     DCD    536872152
    $t
    i.hal_uart_is_config_valid
    hal_uart_is_config_valid
        0x1007a9e8:    2802        .(      CMP      r0,#2
        0x1007a9ea:    d20c        ..      BCS      0x1007aa06 ; hal_uart_is_config_valid + 30
        0x1007a9ec:    b159        Y.      CBZ      r1,0x1007aa06 ; hal_uart_is_config_valid + 30
        0x1007a9ee:    7808        .x      LDRB     r0,[r1,#0]
        0x1007a9f0:    280c        .(      CMP      r0,#0xc
        0x1007a9f2:    d808        ..      BHI      0x1007aa06 ; hal_uart_is_config_valid + 30
        0x1007a9f4:    78c8        .x      LDRB     r0,[r1,#3]
        0x1007a9f6:    2802        .(      CMP      r0,#2
        0x1007a9f8:    d805        ..      BHI      0x1007aa06 ; hal_uart_is_config_valid + 30
        0x1007a9fa:    7888        .x      LDRB     r0,[r1,#2]
        0x1007a9fc:    2801        .(      CMP      r0,#1
        0x1007a9fe:    d802        ..      BHI      0x1007aa06 ; hal_uart_is_config_valid + 30
        0x1007aa00:    7848        Hx      LDRB     r0,[r1,#1]
        0x1007aa02:    2803        .(      CMP      r0,#3
        0x1007aa04:    d901        ..      BLS      0x1007aa0a ; hal_uart_is_config_valid + 34
        0x1007aa06:    2000        .       MOVS     r0,#0
        0x1007aa08:    4770        pG      BX       lr
        0x1007aa0a:    2001        .       MOVS     r0,#1
        0x1007aa0c:    4770        pG      BX       lr
    i.hal_uart_put_char
    hal_uart_put_char
        0x1007aa0e:    b108        ..      CBZ      r0,0x1007aa14 ; hal_uart_put_char + 6
        0x1007aa10:    2801        .(      CMP      r0,#1
        0x1007aa12:    d101        ..      BNE      0x1007aa18 ; hal_uart_put_char + 10
        0x1007aa14:    f000ba9a    ....    B.W      uart_output_char ; 0x1007af4c
        0x1007aa18:    4770        pG      BX       lr
        0x1007aa1a:    0000        ..      MOVS     r0,r0
    i.hal_uart_receive_callback0
    hal_uart_receive_callback0
        0x1007aa1c:    480b        .H      LDR      r0,[pc,#44] ; [0x1007aa4c] = 0x200004d8
        0x1007aa1e:    b510        ..      PUSH     {r4,lr}
        0x1007aa20:    7940        @y      LDRB     r0,[r0,#5]
        0x1007aa22:    b150        P.      CBZ      r0,0x1007aa3a ; hal_uart_receive_callback0 + 30
        0x1007aa24:    2000        .       MOVS     r0,#0
        0x1007aa26:    f7ffff9d    ....    BL       hal_uart_get_available_receive_bytes ; 0x1007a964
        0x1007aa2a:    b130        0.      CBZ      r0,0x1007aa3a ; hal_uart_receive_callback0 + 30
        0x1007aa2c:    4807        .H      LDR      r0,[pc,#28] ; [0x1007aa4c] = 0x200004d8
        0x1007aa2e:    f8502f08    P../    LDR      r2,[r0,#8]!
        0x1007aa32:    b112        ..      CBZ      r2,0x1007aa3a ; hal_uart_receive_callback0 + 30
        0x1007aa34:    6841        Ah      LDR      r1,[r0,#4]
        0x1007aa36:    2001        .       MOVS     r0,#1
        0x1007aa38:    4790        .G      BLX      r2
        0x1007aa3a:    2000        .       MOVS     r0,#0
        0x1007aa3c:    f000f866    ..f.    BL       hal_uart_translate_port ; 0x1007ab0c
        0x1007aa40:    e8bd4010    ...@    POP      {r4,lr}
        0x1007aa44:    2101        .!      MOVS     r1,#1
        0x1007aa46:    f7ffbf65    ..e.    B.W      hal_uart_check_irq_disable ; 0x1007a914
    $d
        0x1007aa4a:    0000        ..      DCW    0
        0x1007aa4c:    200004d8    ...     DCD    536872152
    $t
    i.hal_uart_receive_callback1
    hal_uart_receive_callback1
        0x1007aa50:    480b        .H      LDR      r0,[pc,#44] ; [0x1007aa80] = 0x200004d8
        0x1007aa52:    b510        ..      PUSH     {r4,lr}
        0x1007aa54:    f8900035    ..5.    LDRB     r0,[r0,#0x35]
        0x1007aa58:    b150        P.      CBZ      r0,0x1007aa70 ; hal_uart_receive_callback1 + 32
        0x1007aa5a:    2001        .       MOVS     r0,#1
        0x1007aa5c:    f7ffff82    ....    BL       hal_uart_get_available_receive_bytes ; 0x1007a964
        0x1007aa60:    b130        0.      CBZ      r0,0x1007aa70 ; hal_uart_receive_callback1 + 32
        0x1007aa62:    4807        .H      LDR      r0,[pc,#28] ; [0x1007aa80] = 0x200004d8
        0x1007aa64:    f8502f38    P.8/    LDR      r2,[r0,#0x38]!
        0x1007aa68:    b112        ..      CBZ      r2,0x1007aa70 ; hal_uart_receive_callback1 + 32
        0x1007aa6a:    6841        Ah      LDR      r1,[r0,#4]
        0x1007aa6c:    2001        .       MOVS     r0,#1
        0x1007aa6e:    4790        .G      BLX      r2
        0x1007aa70:    2001        .       MOVS     r0,#1
        0x1007aa72:    f000f84b    ..K.    BL       hal_uart_translate_port ; 0x1007ab0c
        0x1007aa76:    e8bd4010    ...@    POP      {r4,lr}
        0x1007aa7a:    2101        .!      MOVS     r1,#1
        0x1007aa7c:    f7ffbf4a    ..J.    B.W      hal_uart_check_irq_disable ; 0x1007a914
    $d
        0x1007aa80:    200004d8    ...     DCD    536872152
    $t
    i.hal_uart_set_format
    hal_uart_set_format
        0x1007aa84:    e92d41f0    -..A    PUSH     {r4-r8,lr}
        0x1007aa88:    b08e        ..      SUB      sp,sp,#0x38
        0x1007aa8a:    460c        .F      MOV      r4,r1
        0x1007aa8c:    4680        .F      MOV      r8,r0
        0x1007aa8e:    f7ffffab    ....    BL       hal_uart_is_config_valid ; 0x1007a9e8
        0x1007aa92:    b390        ..      CBZ      r0,0x1007aafa ; hal_uart_set_format + 118
        0x1007aa94:    491b        .I      LDR      r1,[pc,#108] ; [0x1007ab04] = 0x200004d8
        0x1007aa96:    eb080048    ..H.    ADD      r0,r8,r8,LSL #1
        0x1007aa9a:    eb011000    ....    ADD      r0,r1,r0,LSL #4
        0x1007aa9e:    6821        !h      LDR      r1,[r4,#0]
        0x1007aaa0:    f8c01001    ....    STR      r1,[r0,#1]
        0x1007aaa4:    4818        .H      LDR      r0,[pc,#96] ; [0x1007ab08] = 0x1007afc8
        0x1007aaa6:    78a1        .x      LDRB     r1,[r4,#2]
        0x1007aaa8:    e8f02313    ...#    LDRD     r2,r3,[r0],#0x4c
        0x1007aaac:    e9cd2300    ...#    STRD     r2,r3,[sp,#0]
        0x1007aab0:    c82c        ,.      LDM      r0!,{r2,r3,r5}
        0x1007aab2:    f83d7011    =..p    LDRH     r7,[sp,r1,LSL #1]
        0x1007aab6:    78e1        .x      LDRB     r1,[r4,#3]
        0x1007aab8:    e88d002c    ..,.    STM      sp,{r2,r3,r5}
        0x1007aabc:    e9502014    P..     LDRD     r2,r0,[r0,#-0x50]
        0x1007aac0:    f83d6011    =..`    LDRH     r6,[sp,r1,LSL #1]
        0x1007aac4:    7861        ax      LDRB     r1,[r4,#1]
        0x1007aac6:    e9cd2000    ...     STRD     r2,r0,[sp,#0]
        0x1007aaca:    f83d5011    =..P    LDRH     r5,[sp,r1,LSL #1]
        0x1007aace:    490e        .I      LDR      r1,[pc,#56] ; [0x1007ab08] = 0x1007afc8
        0x1007aad0:    4668        hF      MOV      r0,sp
        0x1007aad2:    7824        $x      LDRB     r4,[r4,#0]
        0x1007aad4:    2234        4"      MOVS     r2,#0x34
        0x1007aad6:    3118        .1      ADDS     r1,r1,#0x18
        0x1007aad8:    f7fefab8    ....    BL       __aeabi_memcpy ; 0x1007904c
        0x1007aadc:    f85d4024    ].$@    LDR      r4,[sp,r4,LSL #2]
        0x1007aae0:    4640        @F      MOV      r0,r8
        0x1007aae2:    f000f813    ....    BL       hal_uart_translate_port ; 0x1007ab0c
        0x1007aae6:    4633        3F      MOV      r3,r6
        0x1007aae8:    462a        *F      MOV      r2,r5
        0x1007aaea:    4621        !F      MOV      r1,r4
        0x1007aaec:    9700        ..      STR      r7,[sp,#0]
        0x1007aaee:    f7fffddb    ....    BL       halUART_SetFormat ; 0x1007a6a8
        0x1007aaf2:    2000        .       MOVS     r0,#0
        0x1007aaf4:    b00e        ..      ADD      sp,sp,#0x38
        0x1007aaf6:    e8bd81f0    ....    POP      {r4-r8,pc}
        0x1007aafa:    e7ff        ..      B        0x1007aafc ; hal_uart_set_format + 120
        0x1007aafc:    f06f0003    o...    MVN      r0,#3
        0x1007ab00:    e7f8        ..      B        0x1007aaf4 ; hal_uart_set_format + 112
    $d
        0x1007ab02:    0000        ..      DCW    0
        0x1007ab04:    200004d8    ...     DCD    536872152
        0x1007ab08:    1007afc8    ....    DCD    268939208
    $t
    i.hal_uart_translate_port
    hal_uart_translate_port
        0x1007ab0c:    2800        .(      CMP      r0,#0
        0x1007ab0e:    d000        ..      BEQ      0x1007ab12 ; hal_uart_translate_port + 6
        0x1007ab10:    2001        .       MOVS     r0,#1
        0x1007ab12:    4770        pG      BX       lr
    i.halgetGPIO_DIN
    halgetGPIO_DIN
        0x1007ab14:    f3c0114f    ..O.    UBFX     r1,r0,#5,#16
        0x1007ab18:    4a08        .J      LDR      r2,[pc,#32] ; [0x1007ab3c] = 0x8300b000
        0x1007ab1a:    f000001f    ....    AND      r0,r0,#0x1f
        0x1007ab1e:    b119        ..      CBZ      r1,0x1007ab28 ; halgetGPIO_DIN + 20
        0x1007ab20:    2901        .)      CMP      r1,#1
        0x1007ab22:    d004        ..      BEQ      0x1007ab2e ; halgetGPIO_DIN + 26
        0x1007ab24:    2000        .       MOVS     r0,#0
        0x1007ab26:    4770        pG      BX       lr
        0x1007ab28:    f8d210c0    ....    LDR      r1,[r2,#0xc0]
        0x1007ab2c:    e001        ..      B        0x1007ab32 ; halgetGPIO_DIN + 30
        0x1007ab2e:    f8d210c4    ....    LDR      r1,[r2,#0xc4]
        0x1007ab32:    40c1        .@      LSRS     r1,r1,r0
        0x1007ab34:    f0010001    ....    AND      r0,r1,#1
        0x1007ab38:    4770        pG      BX       lr
    $d
        0x1007ab3a:    0000        ..      DCW    0
        0x1007ab3c:    8300b000    ....    DCD    2197860352
    $t
    i.halgetGPIO_DOUT
    halgetGPIO_DOUT
        0x1007ab40:    f3c0114f    ..O.    UBFX     r1,r0,#5,#16
        0x1007ab44:    4a07        .J      LDR      r2,[pc,#28] ; [0x1007ab64] = 0x8300b000
        0x1007ab46:    f000001f    ....    AND      r0,r0,#0x1f
        0x1007ab4a:    b119        ..      CBZ      r1,0x1007ab54 ; halgetGPIO_DOUT + 20
        0x1007ab4c:    2901        .)      CMP      r1,#1
        0x1007ab4e:    d003        ..      BEQ      0x1007ab58 ; halgetGPIO_DOUT + 24
        0x1007ab50:    2000        .       MOVS     r0,#0
        0x1007ab52:    4770        pG      BX       lr
        0x1007ab54:    6e11        .n      LDR      r1,[r2,#0x60]
        0x1007ab56:    e000        ..      B        0x1007ab5a ; halgetGPIO_DOUT + 26
        0x1007ab58:    6f11        .o      LDR      r1,[r2,#0x70]
        0x1007ab5a:    40c1        .@      LSRS     r1,r1,r0
        0x1007ab5c:    f0010001    ....    AND      r0,r1,#1
        0x1007ab60:    4770        pG      BX       lr
    $d
        0x1007ab62:    0000        ..      DCW    0
        0x1007ab64:    8300b000    ....    DCD    2197860352
    $t
    i.halgetGPIO_OutEnable
    halgetGPIO_OutEnable
        0x1007ab68:    f3c0114f    ..O.    UBFX     r1,r0,#5,#16
        0x1007ab6c:    4a08        .J      LDR      r2,[pc,#32] ; [0x1007ab90] = 0x8300b000
        0x1007ab6e:    f000001f    ....    AND      r0,r0,#0x1f
        0x1007ab72:    b119        ..      CBZ      r1,0x1007ab7c ; halgetGPIO_OutEnable + 20
        0x1007ab74:    2901        .)      CMP      r1,#1
        0x1007ab76:    d004        ..      BEQ      0x1007ab82 ; halgetGPIO_OutEnable + 26
        0x1007ab78:    2000        .       MOVS     r0,#0
        0x1007ab7a:    4770        pG      BX       lr
        0x1007ab7c:    f8d21090    ....    LDR      r1,[r2,#0x90]
        0x1007ab80:    e001        ..      B        0x1007ab86 ; halgetGPIO_OutEnable + 30
        0x1007ab82:    f8d210a0    ....    LDR      r1,[r2,#0xa0]
        0x1007ab86:    40c1        .@      LSRS     r1,r1,r0
        0x1007ab88:    f0010001    ....    AND      r0,r1,#1
        0x1007ab8c:    4770        pG      BX       lr
    $d
        0x1007ab8e:    0000        ..      DCW    0
        0x1007ab90:    8300b000    ....    DCD    2197860352
    $t
    i.log_hal_error_internal
    log_hal_error_internal
        0x1007ab94:    b40f        ..      PUSH     {r0-r3}
        0x1007ab96:    b508        ..      PUSH     {r3,lr}
        0x1007ab98:    4668        hF      MOV      r0,sp
        0x1007ab9a:    f7fffe8a    ....    BL       hal_nvic_save_and_set_interrupt_mask ; 0x1007a8b2
        0x1007ab9e:    a905        ..      ADD      r1,sp,#0x14
        0x1007aba0:    9804        ..      LDR      r0,[sp,#0x10]
        0x1007aba2:    f7fefe7b    ..{.    BL       __0vprintf ; 0x1007989c
        0x1007aba6:    9800        ..      LDR      r0,[sp,#0]
        0x1007aba8:    f7fffe7e    ..~.    BL       hal_nvic_restore_interrupt_mask ; 0x1007a8a8
        0x1007abac:    b001        ..      ADD      sp,sp,#4
        0x1007abae:    f85dfb14    ]...    LDR      pc,[sp],#0x14
        0x1007abb2:    0000        ..      MOVS     r0,r0
    i.main
    main
        0x1007abb4:    b51f        ..      PUSH     {r0-r4,lr}
        0x1007abb6:    2500        .%      MOVS     r5,#0
        0x1007abb8:    9500        ..      STR      r5,[sp,#0]
        0x1007abba:    9501        ..      STR      r5,[sp,#4]
        0x1007abbc:    f000f976    ..v.    BL       top_xtal_init ; 0x1007aeac
        0x1007abc0:    2108        .!      MOVS     r1,#8
        0x1007abc2:    2000        .       MOVS     r0,#0
        0x1007abc4:    f7fffe92    ....    BL       hal_pinmux_set_function ; 0x1007a8ec
        0x1007abc8:    2107        .!      MOVS     r1,#7
        0x1007abca:    2001        .       MOVS     r0,#1
        0x1007abcc:    f7fffe8e    ....    BL       hal_pinmux_set_function ; 0x1007a8ec
        0x1007abd0:    2107        .!      MOVS     r1,#7
        0x1007abd2:    2002        .       MOVS     r0,#2
        0x1007abd4:    f7fffe8a    ....    BL       hal_pinmux_set_function ; 0x1007a8ec
        0x1007abd8:    2107        .!      MOVS     r1,#7
        0x1007abda:    2003        .       MOVS     r0,#3
        0x1007abdc:    f7fffe86    ....    BL       hal_pinmux_set_function ; 0x1007a8ec
        0x1007abe0:    2108        .!      MOVS     r1,#8
        0x1007abe2:    2025        %       MOVS     r0,#0x25
        0x1007abe4:    f7fffe82    ....    BL       hal_pinmux_set_function ; 0x1007a8ec
        0x1007abe8:    2108        .!      MOVS     r1,#8
        0x1007abea:    2027        '       MOVS     r0,#0x27
        0x1007abec:    f7fffe7e    ..~.    BL       hal_pinmux_set_function ; 0x1007a8ec
        0x1007abf0:    2009        .       MOVS     r0,#9
        0x1007abf2:    f88d000c    ....    STRB     r0,[sp,#0xc]
        0x1007abf6:    2003        .       MOVS     r0,#3
        0x1007abf8:    f88d000d    ....    STRB     r0,[sp,#0xd]
        0x1007abfc:    f88d500e    ...P    STRB     r5,[sp,#0xe]
        0x1007ac00:    f88d500f    ...P    STRB     r5,[sp,#0xf]
        0x1007ac04:    a903        ..      ADD      r1,sp,#0xc
        0x1007ac06:    2000        .       MOVS     r0,#0
        0x1007ac08:    f7fffebc    ....    BL       hal_uart_init ; 0x1007a984
        0x1007ac0c:    b663        c.      CPSIE    if
        0x1007ac0e:    a022        ".      ADR      r0,{pc}+0x8a ; 0x1007ac98
        0x1007ac10:    f7fefe34    ..4.    BL       __0printf ; 0x1007987c
        0x1007ac14:    a022        ".      ADR      r0,{pc}+0x8c ; 0x1007aca0
        0x1007ac16:    f7fefe31    ..1.    BL       __0printf ; 0x1007987c
        0x1007ac1a:    f7fffb05    ....    BL       gpio_application_ini_0 ; 0x1007a228
        0x1007ac1e:    f7fffb23    ..#.    BL       gpio_application_ini_39 ; 0x1007a268
        0x1007ac22:    f7fffb13    ....    BL       gpio_application_ini_37 ; 0x1007a24c
        0x1007ac26:    9800        ..      LDR      r0,[sp,#0]
        0x1007ac28:    f000f8aa    ....    BL       sent_data ; 0x1007ad80
        0x1007ac2c:    2601        .&      MOVS     r6,#1
        0x1007ac2e:    f24034ff    @..4    MOV      r4,#0x3ff
        0x1007ac32:    a902        ..      ADD      r1,sp,#8
        0x1007ac34:    2025        %       MOVS     r0,#0x25
        0x1007ac36:    f7fffdab    ....    BL       hal_gpio_get_input ; 0x1007a790
        0x1007ac3a:    201e        .       MOVS     r0,#0x1e
        0x1007ac3c:    f7fffddc    ....    BL       hal_gpt_delay_ms ; 0x1007a7f8
        0x1007ac40:    f89d0008    ....    LDRB     r0,[sp,#8]
        0x1007ac44:    2801        .(      CMP      r0,#1
        0x1007ac46:    d010        ..      BEQ      0x1007ac6a ; main + 182
        0x1007ac48:    2800        .(      CMP      r0,#0
        0x1007ac4a:    d1f2        ..      BNE      0x1007ac32 ; main + 126
        0x1007ac4c:    9801        ..      LDR      r0,[sp,#4]
        0x1007ac4e:    2801        .(      CMP      r0,#1
        0x1007ac50:    d1ef        ..      BNE      0x1007ac32 ; main + 126
        0x1007ac52:    9800        ..      LDR      r0,[sp,#0]
        0x1007ac54:    9501        ..      STR      r5,[sp,#4]
        0x1007ac56:    280b        .(      CMP      r0,#0xb
        0x1007ac58:    d21a        ..      BCS      0x1007ac90 ; main + 220
        0x1007ac5a:    e8dff000    ....    TBB      [pc,r0]
    $d
        0x1007ac5e:    0e19        ..      DCW    3609
        0x1007ac60:    0e0e0e0e    ....    DCD    235802126
        0x1007ac64:    0e0e0e0e    ....    DCD    235802126
        0x1007ac68:    000e        ..      DCW    14
    $t
        0x1007ac6a:    9801        ..      LDR      r0,[sp,#4]
        0x1007ac6c:    2800        .(      CMP      r0,#0
        0x1007ac6e:    d1e0        ..      BNE      0x1007ac32 ; main + 126
        0x1007ac70:    9800        ..      LDR      r0,[sp,#0]
        0x1007ac72:    9601        ..      STR      r6,[sp,#4]
        0x1007ac74:    1c40        @.      ADDS     r0,r0,#1
        0x1007ac76:    9000        ..      STR      r0,[sp,#0]
        0x1007ac78:    e7db        ..      B        0x1007ac32 ; main + 126
        0x1007ac7a:    f000f881    ....    BL       sent_data ; 0x1007ad80
        0x1007ac7e:    9800        ..      LDR      r0,[sp,#0]
        0x1007ac80:    f1c0000a    ....    RSB      r0,r0,#0xa
        0x1007ac84:    fa24f100    $...    LSR      r1,r4,r0
        0x1007ac88:    a00a        ..      ADR      r0,{pc}+0x2c ; 0x1007acb4
        0x1007ac8a:    f7fefdf7    ....    BL       __0printf ; 0x1007987c
        0x1007ac8e:    e7d0        ..      B        0x1007ac32 ; main + 126
        0x1007ac90:    4630        0F      MOV      r0,r6
        0x1007ac92:    9600        ..      STR      r6,[sp,#0]
        0x1007ac94:    e7f1        ..      B        0x1007ac7a ; main + 198
    $d
        0x1007ac96:    0000        ..      DCW    0
        0x1007ac98:    0a0d0a0d    ....    DCD    168626701
        0x1007ac9c:    00000000    ....    DCD    0
        0x1007aca0:    636c6577    welc    DCD    1668048247
        0x1007aca4:    20656d6f    ome     DCD    543518063
        0x1007aca8:    6d206f74    to m    DCD    1830842228
        0x1007acac:    286e6961    ain(    DCD    678324577
        0x1007acb0:    000a0d29    )...    DCD    658729
        0x1007acb4:    2044454c    LED     DCD    541345100
        0x1007acb8:    20524142    BAR     DCD    542261570
        0x1007acbc:    6425203d    = %d    DCD    1680154685
        0x1007acc0:    000a0d20     ...    DCD    658720
    $t
    i.pinmux_config
    pinmux_config
        0x1007acc4:    b510        ..      PUSH     {r4,lr}
        0x1007acc6:    281e        .(      CMP      r0,#0x1e
        0x1007acc8:    d055        U.      BEQ      0x1007ad76 ; pinmux_config + 178
        0x1007acca:    dc12        ..      BGT      0x1007acf2 ; pinmux_config + 46
        0x1007accc:    2807        .(      CMP      r0,#7
        0x1007acce:    d052        R.      BEQ      0x1007ad76 ; pinmux_config + 178
        0x1007acd0:    dc07        ..      BGT      0x1007ace2 ; pinmux_config + 30
        0x1007acd2:    2807        .(      CMP      r0,#7
        0x1007acd4:    d227        '.      BCS      0x1007ad26 ; pinmux_config + 98
        0x1007acd6:    e8dff000    ....    TBB      [pc,r0]
    $d
        0x1007acda:    2b29        )+      DCW    11049
        0x1007acdc:    33312f2d    -/13    DCD    858861357
        0x1007ace0:    0035        5.      DCW    53
    $t
        0x1007ace2:    3818        .8      SUBS     r0,r0,#0x18
        0x1007ace4:    2806        .(      CMP      r0,#6
        0x1007ace6:    d21e        ..      BCS      0x1007ad26 ; pinmux_config + 98
        0x1007ace8:    e8dff000    ....    TBB      [pc,r0]
    $d
        0x1007acec:    3432302e    .024    DCD    875704366
        0x1007acf0:    3836        68      DCW    14390
    $t
        0x1007acf2:    2825        %(      CMP      r0,#0x25
        0x1007acf4:    d03f        ?.      BEQ      0x1007ad76 ; pinmux_config + 178
        0x1007acf6:    dc08        ..      BGT      0x1007ad0a ; pinmux_config + 70
        0x1007acf8:    f1a0001f    ....    SUB      r0,r0,#0x1f
        0x1007acfc:    2806        .(      CMP      r0,#6
        0x1007acfe:    d212        ..      BCS      0x1007ad26 ; pinmux_config + 98
        0x1007ad00:    e8dff000    ....    TBB      [pc,r0]
    $d
        0x1007ad04:    3432302e    .024    DCD    875704366
        0x1007ad08:    3836        68      DCW    14390
    $t
        0x1007ad0a:    283a        :(      CMP      r0,#0x3a
        0x1007ad0c:    d033        3.      BEQ      0x1007ad76 ; pinmux_config + 178
        0x1007ad0e:    dc06        ..      BGT      0x1007ad1e ; pinmux_config + 90
        0x1007ad10:    2826        &(      CMP      r0,#0x26
        0x1007ad12:    d030        0.      BEQ      0x1007ad76 ; pinmux_config + 178
        0x1007ad14:    2827        '(      CMP      r0,#0x27
        0x1007ad16:    d02e        ..      BEQ      0x1007ad76 ; pinmux_config + 178
        0x1007ad18:    2839        9(      CMP      r0,#0x39
        0x1007ad1a:    d104        ..      BNE      0x1007ad26 ; pinmux_config + 98
        0x1007ad1c:    e02b        +.      B        0x1007ad76 ; pinmux_config + 178
        0x1007ad1e:    283b        ;(      CMP      r0,#0x3b
        0x1007ad20:    d029        ).      BEQ      0x1007ad76 ; pinmux_config + 178
        0x1007ad22:    283c        <(      CMP      r0,#0x3c
        0x1007ad24:    d027        '.      BEQ      0x1007ad76 ; pinmux_config + 178
        0x1007ad26:    f04f30ff    O..0    MOV      r0,#0xffffffff
        0x1007ad2a:    bd10        ..      POP      {r4,pc}
        0x1007ad2c:    2000        .       MOVS     r0,#0
        0x1007ad2e:    e022        ".      B        0x1007ad76 ; pinmux_config + 178
        0x1007ad30:    2001        .       MOVS     r0,#1
        0x1007ad32:    e020         .      B        0x1007ad76 ; pinmux_config + 178
        0x1007ad34:    2002        .       MOVS     r0,#2
        0x1007ad36:    e01e        ..      B        0x1007ad76 ; pinmux_config + 178
        0x1007ad38:    2003        .       MOVS     r0,#3
        0x1007ad3a:    e01c        ..      B        0x1007ad76 ; pinmux_config + 178
        0x1007ad3c:    2004        .       MOVS     r0,#4
        0x1007ad3e:    e01a        ..      B        0x1007ad76 ; pinmux_config + 178
        0x1007ad40:    2005        .       MOVS     r0,#5
        0x1007ad42:    e018        ..      B        0x1007ad76 ; pinmux_config + 178
        0x1007ad44:    2006        .       MOVS     r0,#6
        0x1007ad46:    e016        ..      B        0x1007ad76 ; pinmux_config + 178
        0x1007ad48:    2018        .       MOVS     r0,#0x18
        0x1007ad4a:    e014        ..      B        0x1007ad76 ; pinmux_config + 178
        0x1007ad4c:    2019        .       MOVS     r0,#0x19
        0x1007ad4e:    e012        ..      B        0x1007ad76 ; pinmux_config + 178
        0x1007ad50:    201a        .       MOVS     r0,#0x1a
        0x1007ad52:    e010        ..      B        0x1007ad76 ; pinmux_config + 178
        0x1007ad54:    201b        .       MOVS     r0,#0x1b
        0x1007ad56:    e00e        ..      B        0x1007ad76 ; pinmux_config + 178
        0x1007ad58:    201c        .       MOVS     r0,#0x1c
        0x1007ad5a:    e00c        ..      B        0x1007ad76 ; pinmux_config + 178
        0x1007ad5c:    201d        .       MOVS     r0,#0x1d
        0x1007ad5e:    e00a        ..      B        0x1007ad76 ; pinmux_config + 178
        0x1007ad60:    201f        .       MOVS     r0,#0x1f
        0x1007ad62:    e008        ..      B        0x1007ad76 ; pinmux_config + 178
        0x1007ad64:    2020                MOVS     r0,#0x20
        0x1007ad66:    e006        ..      B        0x1007ad76 ; pinmux_config + 178
        0x1007ad68:    2021        !       MOVS     r0,#0x21
        0x1007ad6a:    e004        ..      B        0x1007ad76 ; pinmux_config + 178
        0x1007ad6c:    2022        "       MOVS     r0,#0x22
        0x1007ad6e:    e002        ..      B        0x1007ad76 ; pinmux_config + 178
        0x1007ad70:    2023        #       MOVS     r0,#0x23
        0x1007ad72:    e000        ..      B        0x1007ad76 ; pinmux_config + 178
        0x1007ad74:    2024        $       MOVS     r0,#0x24
        0x1007ad76:    b2c9        ..      UXTB     r1,r1
        0x1007ad78:    f7fffb62    ..b.    BL       halPinmuxTopOnPadFunc ; 0x1007a440
        0x1007ad7c:    2000        .       MOVS     r0,#0
        0x1007ad7e:    bd10        ..      POP      {r4,pc}
    i.sent_data
    sent_data
        0x1007ad80:    b570        p.      PUSH     {r4-r6,lr}
        0x1007ad82:    4606        .F      MOV      r6,r0
        0x1007ad84:    2400        .$      MOVS     r4,#0
        0x1007ad86:    2100        .!      MOVS     r1,#0
        0x1007ad88:    4608        .F      MOV      r0,r1
        0x1007ad8a:    f7fffd26    ..&.    BL       hal_gpio_set_output ; 0x1007a7da
        0x1007ad8e:    2101        .!      MOVS     r1,#1
        0x1007ad90:    2027        '       MOVS     r0,#0x27
        0x1007ad92:    f7fffd22    ..".    BL       hal_gpio_set_output ; 0x1007a7da
        0x1007ad96:    200a        .       MOVS     r0,#0xa
        0x1007ad98:    f7fffd42    ..B.    BL       hal_gpt_delay_us ; 0x1007a820
        0x1007ad9c:    2100        .!      MOVS     r1,#0
        0x1007ad9e:    4608        .F      MOV      r0,r1
        0x1007ada0:    f7fffd1b    ....    BL       hal_gpio_set_output ; 0x1007a7da
        0x1007ada4:    2100        .!      MOVS     r1,#0
        0x1007ada6:    2027        '       MOVS     r0,#0x27
        0x1007ada8:    f7fffd17    ....    BL       hal_gpio_set_output ; 0x1007a7da
        0x1007adac:    200a        .       MOVS     r0,#0xa
        0x1007adae:    f7fffd37    ..7.    BL       hal_gpt_delay_us ; 0x1007a820
        0x1007adb2:    1c64        d.      ADDS     r4,r4,#1
        0x1007adb4:    2c07        .,      CMP      r4,#7
        0x1007adb6:    d9e6        ..      BLS      0x1007ad86 ; sent_data + 6
        0x1007adb8:    2500        .%      MOVS     r5,#0
        0x1007adba:    2400        .$      MOVS     r4,#0
        0x1007adbc:    e05c        \.      B        0x1007ae78 ; sent_data + 248
        0x1007adbe:    2c03        .,      CMP      r4,#3
        0x1007adc0:    dd5a        Z.      BLE      0x1007ae78 ; sent_data + 248
        0x1007adc2:    42b5        .B      CMP      r5,r6
        0x1007adc4:    da58        X.      BGE      0x1007ae78 ; sent_data + 248
        0x1007adc6:    2101        .!      MOVS     r1,#1
        0x1007adc8:    2000        .       MOVS     r0,#0
        0x1007adca:    f7fffd06    ....    BL       hal_gpio_set_output ; 0x1007a7da
        0x1007adce:    2101        .!      MOVS     r1,#1
        0x1007add0:    2027        '       MOVS     r0,#0x27
        0x1007add2:    f7fffd02    ....    BL       hal_gpio_set_output ; 0x1007a7da
        0x1007add6:    200a        .       MOVS     r0,#0xa
        0x1007add8:    f7fffd22    ..".    BL       hal_gpt_delay_us ; 0x1007a820
        0x1007addc:    2101        .!      MOVS     r1,#1
        0x1007adde:    2000        .       MOVS     r0,#0
        0x1007ade0:    f7fffcfb    ....    BL       hal_gpio_set_output ; 0x1007a7da
        0x1007ade4:    2100        .!      MOVS     r1,#0
        0x1007ade6:    2027        '       MOVS     r0,#0x27
        0x1007ade8:    f7fffcf7    ....    BL       hal_gpio_set_output ; 0x1007a7da
        0x1007adec:    200a        .       MOVS     r0,#0xa
        0x1007adee:    f7fffd17    ....    BL       hal_gpt_delay_us ; 0x1007a820
        0x1007adf2:    1c64        d.      ADDS     r4,r4,#1
        0x1007adf4:    2c07        .,      CMP      r4,#7
        0x1007adf6:    dde2        ..      BLE      0x1007adbe ; sent_data + 62
        0x1007adf8:    1c6d        m.      ADDS     r5,r5,#1
        0x1007adfa:    2d09        .-      CMP      r5,#9
        0x1007adfc:    dddd        ..      BLE      0x1007adba ; sent_data + 58
        0x1007adfe:    2500        .%      MOVS     r5,#0
        0x1007ae00:    2400        .$      MOVS     r4,#0
        0x1007ae02:    2100        .!      MOVS     r1,#0
        0x1007ae04:    4608        .F      MOV      r0,r1
        0x1007ae06:    f7fffce8    ....    BL       hal_gpio_set_output ; 0x1007a7da
        0x1007ae0a:    2101        .!      MOVS     r1,#1
        0x1007ae0c:    2027        '       MOVS     r0,#0x27
        0x1007ae0e:    f7fffce4    ....    BL       hal_gpio_set_output ; 0x1007a7da
        0x1007ae12:    200a        .       MOVS     r0,#0xa
        0x1007ae14:    f7fffd04    ....    BL       hal_gpt_delay_us ; 0x1007a820
        0x1007ae18:    2100        .!      MOVS     r1,#0
        0x1007ae1a:    4608        .F      MOV      r0,r1
        0x1007ae1c:    f7fffcdd    ....    BL       hal_gpio_set_output ; 0x1007a7da
        0x1007ae20:    2100        .!      MOVS     r1,#0
        0x1007ae22:    2027        '       MOVS     r0,#0x27
        0x1007ae24:    f7fffcd9    ....    BL       hal_gpio_set_output ; 0x1007a7da
        0x1007ae28:    200a        .       MOVS     r0,#0xa
        0x1007ae2a:    f7fffcf9    ....    BL       hal_gpt_delay_us ; 0x1007a820
        0x1007ae2e:    1c64        d.      ADDS     r4,r4,#1
        0x1007ae30:    2c07        .,      CMP      r4,#7
        0x1007ae32:    dde6        ..      BLE      0x1007ae02 ; sent_data + 130
        0x1007ae34:    1c6d        m.      ADDS     r5,r5,#1
        0x1007ae36:    2d01        .-      CMP      r5,#1
        0x1007ae38:    dde2        ..      BLE      0x1007ae00 ; sent_data + 128
        0x1007ae3a:    2100        .!      MOVS     r1,#0
        0x1007ae3c:    2027        '       MOVS     r0,#0x27
        0x1007ae3e:    f7fffccc    ....    BL       hal_gpio_set_output ; 0x1007a7da
        0x1007ae42:    2100        .!      MOVS     r1,#0
        0x1007ae44:    4608        .F      MOV      r0,r1
        0x1007ae46:    f7fffcc8    ....    BL       hal_gpio_set_output ; 0x1007a7da
        0x1007ae4a:    f44f7096    O..p    MOV      r0,#0x12c
        0x1007ae4e:    f7fffce7    ....    BL       hal_gpt_delay_us ; 0x1007a820
        0x1007ae52:    2400        .$      MOVS     r4,#0
        0x1007ae54:    2101        .!      MOVS     r1,#1
        0x1007ae56:    2000        .       MOVS     r0,#0
        0x1007ae58:    f7fffcbf    ....    BL       hal_gpio_set_output ; 0x1007a7da
        0x1007ae5c:    2001        .       MOVS     r0,#1
        0x1007ae5e:    f7fffcdf    ....    BL       hal_gpt_delay_us ; 0x1007a820
        0x1007ae62:    2100        .!      MOVS     r1,#0
        0x1007ae64:    4608        .F      MOV      r0,r1
        0x1007ae66:    f7fffcb8    ....    BL       hal_gpio_set_output ; 0x1007a7da
        0x1007ae6a:    2001        .       MOVS     r0,#1
        0x1007ae6c:    f7fffcd8    ....    BL       hal_gpt_delay_us ; 0x1007a820
        0x1007ae70:    1c64        d.      ADDS     r4,r4,#1
        0x1007ae72:    2c03        .,      CMP      r4,#3
        0x1007ae74:    ddee        ..      BLE      0x1007ae54 ; sent_data + 212
        0x1007ae76:    bd70        p.      POP      {r4-r6,pc}
        0x1007ae78:    2100        .!      MOVS     r1,#0
        0x1007ae7a:    4608        .F      MOV      r0,r1
        0x1007ae7c:    f7fffcad    ....    BL       hal_gpio_set_output ; 0x1007a7da
        0x1007ae80:    2101        .!      MOVS     r1,#1
        0x1007ae82:    2027        '       MOVS     r0,#0x27
        0x1007ae84:    f7fffca9    ....    BL       hal_gpio_set_output ; 0x1007a7da
        0x1007ae88:    200a        .       MOVS     r0,#0xa
        0x1007ae8a:    f7fffcc9    ....    BL       hal_gpt_delay_us ; 0x1007a820
        0x1007ae8e:    2100        .!      MOVS     r1,#0
        0x1007ae90:    e7a5        ..      B        0x1007adde ; sent_data + 94
        0x1007ae92:    0000        ..      MOVS     r0,r0
    i.top_mcu_freq_get
    top_mcu_freq_get
        0x1007ae94:    4801        .H      LDR      r0,[pc,#4] ; [0x1007ae9c] = 0x200001c0
        0x1007ae96:    6840        @h      LDR      r0,[r0,#4]
        0x1007ae98:    4770        pG      BX       lr
    $d
        0x1007ae9a:    0000        ..      DCW    0
        0x1007ae9c:    200001c0    ...     DCD    536871360
    $t
    i.top_xtal_freq_get
    top_xtal_freq_get
        0x1007aea0:    4801        .H      LDR      r0,[pc,#4] ; [0x1007aea8] = 0x200001c0
        0x1007aea2:    6800        .h      LDR      r0,[r0,#0]
        0x1007aea4:    4770        pG      BX       lr
    $d
        0x1007aea6:    0000        ..      DCW    0
        0x1007aea8:    200001c0    ...     DCD    536871360
    $t
    i.top_xtal_init
    top_xtal_init
        0x1007aeac:    b570        p.      PUSH     {r4-r6,lr}
        0x1007aeae:    4a1a        .J      LDR      r2,[pc,#104] ; [0x1007af18] = 0x83008000
        0x1007aeb0:    f8d201c0    ....    LDR      r0,[r2,#0x1c0]
        0x1007aeb4:    f3c03342    ..B3    UBFX     r3,r0,#13,#3
        0x1007aeb8:    f8d201b8    ....    LDR      r0,[r2,#0x1b8]
        0x1007aebc:    4c17        .L      LDR      r4,[pc,#92] ; [0x1007af1c] = 0x2625a00
        0x1007aebe:    4918        .I      LDR      r1,[pc,#96] ; [0x1007af20] = 0x200001c0
        0x1007aec0:    f36f000a    o...    BFC      r0,#0,#11
        0x1007aec4:    2b08        .+      CMP      r3,#8
        0x1007aec6:    d217        ..      BCS      0x1007aef8 ; top_xtal_init + 76
        0x1007aec8:    e8dff003    ....    TBB      [pc,r3]
    $d
        0x1007aecc:    120d0904    ....    DCD    302844164
        0x1007aed0:    09090909    ....    DCD    151587081
    $t
        0x1007aed4:    4b13        .K      LDR      r3,[pc,#76] ; [0x1007af24] = 0x1312d00
        0x1007aed6:    f0400010    @...    ORR      r0,r0,#0x10
        0x1007aeda:    600b        .`      STR      r3,[r1,#0]
        0x1007aedc:    e00c        ..      B        0x1007aef8 ; top_xtal_init + 76
        0x1007aede:    f4407000    @..p    ORR      r0,r0,#0x200
        0x1007aee2:    600c        .`      STR      r4,[r1,#0]
        0x1007aee4:    e008        ..      B        0x1007aef8 ; top_xtal_init + 76
        0x1007aee6:    4b10        .K      LDR      r3,[pc,#64] ; [0x1007af28] = 0x18cba80
        0x1007aee8:    f0400040    @.@.    ORR      r0,r0,#0x40
        0x1007aeec:    600b        .`      STR      r3,[r1,#0]
        0x1007aeee:    e003        ..      B        0x1007aef8 ; top_xtal_init + 76
        0x1007aef0:    4b0e        .K      LDR      r3,[pc,#56] ; [0x1007af2c] = 0x3197500
        0x1007aef2:    f4406080    @..`    ORR      r0,r0,#0x400
        0x1007aef6:    600b        .`      STR      r3,[r1,#0]
        0x1007aef8:    f8c201b8    ....    STR      r0,[r2,#0x1b8]
        0x1007aefc:    6808        .h      LDR      r0,[r1,#0]
        0x1007aefe:    6048        H`      STR      r0,[r1,#4]
        0x1007af00:    f7fefca2    ....    BL       SystemCoreClockUpdate ; 0x10079848
        0x1007af04:    480a        .H      LDR      r0,[pc,#40] ; [0x1007af30] = 0x200001cc
        0x1007af06:    f44f717a    O.zq    MOV      r1,#0x3e8
        0x1007af0a:    6800        .h      LDR      r0,[r0,#0]
        0x1007af0c:    e8bd4070    ..p@    POP      {r4-r6,lr}
        0x1007af10:    fbb0f0f1    ....    UDIV     r0,r0,r1
        0x1007af14:    f7febc85    ....    B        SysTick_Set ; 0x10079822
    $d
        0x1007af18:    83008000    ....    DCD    2197848064
        0x1007af1c:    02625a00    .Zb.    DCD    40000000
        0x1007af20:    200001c0    ...     DCD    536871360
        0x1007af24:    01312d00    .-1.    DCD    20000000
        0x1007af28:    018cba80    ....    DCD    26000000
        0x1007af2c:    03197500    .u..    DCD    52000000
        0x1007af30:    200001cc    ...     DCD    536871372
    $t
    i.uart_channel_to_dma_channel
    uart_channel_to_dma_channel
        0x1007af34:    b110        ..      CBZ      r0,0x1007af3c ; uart_channel_to_dma_channel + 8
        0x1007af36:    b131        1.      CBZ      r1,0x1007af46 ; uart_channel_to_dma_channel + 18
        0x1007af38:    2011        .       MOVS     r0,#0x11
        0x1007af3a:    4770        pG      BX       lr
        0x1007af3c:    b109        ..      CBZ      r1,0x1007af42 ; uart_channel_to_dma_channel + 14
        0x1007af3e:    200f        .       MOVS     r0,#0xf
        0x1007af40:    4770        pG      BX       lr
        0x1007af42:    200e        .       MOVS     r0,#0xe
        0x1007af44:    4770        pG      BX       lr
        0x1007af46:    2010        .       MOVS     r0,#0x10
        0x1007af48:    4770        pG      BX       lr
        0x1007af4a:    0000        ..      MOVS     r0,r0
    i.uart_output_char
    uart_output_char
        0x1007af4c:    b128        (.      CBZ      r0,0x1007af5a ; uart_output_char + 14
        0x1007af4e:    4804        .H      LDR      r0,[pc,#16] ; [0x1007af60] = 0x83040000
        0x1007af50:    6942        Bi      LDR      r2,[r0,#0x14]
        0x1007af52:    0692        ..      LSLS     r2,r2,#26
        0x1007af54:    d5fc        ..      BPL      0x1007af50 ; uart_output_char + 4
        0x1007af56:    6001        .`      STR      r1,[r0,#0]
        0x1007af58:    4770        pG      BX       lr
        0x1007af5a:    4802        .H      LDR      r0,[pc,#8] ; [0x1007af64] = 0x83030000
        0x1007af5c:    e7f8        ..      B        0x1007af50 ; uart_output_char + 4
    $d
        0x1007af5e:    0000        ..      DCW    0
        0x1007af60:    83040000    ....    DCD    2198077440
        0x1007af64:    83030000    ....    DCD    2198011904
    $t
    i.uart_reset_default_value
    uart_reset_default_value
        0x1007af68:    b308        ..      CBZ      r0,0x1007afae ; uart_reset_default_value + 70
        0x1007af6a:    4812        .H      LDR      r0,[pc,#72] ; [0x1007afb4] = 0x83040000
        0x1007af6c:    22bf        ."      MOVS     r2,#0xbf
        0x1007af6e:    60c2        .`      STR      r2,[r0,#0xc]
        0x1007af70:    2110        .!      MOVS     r1,#0x10
        0x1007af72:    6081        .`      STR      r1,[r0,#8]
        0x1007af74:    2100        .!      MOVS     r1,#0
        0x1007af76:    6101        .a      STR      r1,[r0,#0x10]
        0x1007af78:    6181        .a      STR      r1,[r0,#0x18]
        0x1007af7a:    2380        .#      MOVS     r3,#0x80
        0x1007af7c:    60c3        .`      STR      r3,[r0,#0xc]
        0x1007af7e:    6001        .`      STR      r1,[r0,#0]
        0x1007af80:    6041        A`      STR      r1,[r0,#4]
        0x1007af82:    60c1        .`      STR      r1,[r0,#0xc]
        0x1007af84:    6041        A`      STR      r1,[r0,#4]
        0x1007af86:    6081        .`      STR      r1,[r0,#8]
        0x1007af88:    60c2        .`      STR      r2,[r0,#0xc]
        0x1007af8a:    6081        .`      STR      r1,[r0,#8]
        0x1007af8c:    60c1        .`      STR      r1,[r0,#0xc]
        0x1007af8e:    6101        .a      STR      r1,[r0,#0x10]
        0x1007af90:    61c1        .a      STR      r1,[r0,#0x1c]
        0x1007af92:    6241        Ab      STR      r1,[r0,#0x24]
        0x1007af94:    6281        .b      STR      r1,[r0,#0x28]
        0x1007af96:    62c1        .b      STR      r1,[r0,#0x2c]
        0x1007af98:    6341        Ac      STR      r1,[r0,#0x34]
        0x1007af9a:    63c1        .c      STR      r1,[r0,#0x3c]
        0x1007af9c:    6401        .d      STR      r1,[r0,#0x40]
        0x1007af9e:    6441        Ad      STR      r1,[r0,#0x44]
        0x1007afa0:    6481        .d      STR      r1,[r0,#0x48]
        0x1007afa2:    64c1        .d      STR      r1,[r0,#0x4c]
        0x1007afa4:    6501        .e      STR      r1,[r0,#0x50]
        0x1007afa6:    6541        Ae      STR      r1,[r0,#0x54]
        0x1007afa8:    6581        .e      STR      r1,[r0,#0x58]
        0x1007afaa:    6601        .f      STR      r1,[r0,#0x60]
        0x1007afac:    4770        pG      BX       lr
        0x1007afae:    4802        .H      LDR      r0,[pc,#8] ; [0x1007afb8] = 0x83030000
        0x1007afb0:    e7dc        ..      B        0x1007af6c ; uart_reset_default_value + 4
    $d
        0x1007afb2:    0000        ..      DCW    0
        0x1007afb4:    83040000    ....    DCD    2198077440
        0x1007afb8:    83030000    ....    DCD    2198011904
    $d.realdata
    .constdata
    __FUNCTION__
        0x1007afbc:    43727369    isrC    DCD    1131574121
        0x1007afc0:    69616d5f    _mai    DCD    1767992671
        0x1007afc4:    0000006e    n...    DCD    110
    .constdata
        0x1007afc8:    00040000    ....    DCD    262144
        0x1007afcc:    00000004    ....    DCD    4
        0x1007afd0:    00010000    ....    DCD    65536
        0x1007afd4:    00030002    ....    DCD    196610
    func_tbl
        0x1007afd8:    1007aa1d    ....    DCD    268937757
        0x1007afdc:    1007aa51    Q...    DCD    268937809
        0x1007afe0:    0000006e    n...    DCD    110
        0x1007afe4:    0000012c    ,...    DCD    300
        0x1007afe8:    000004b0    ....    DCD    1200
        0x1007afec:    00000960    `...    DCD    2400
        0x1007aff0:    000012c0    ....    DCD    4800
        0x1007aff4:    00002580    .%..    DCD    9600
        0x1007aff8:    00004b00    .K..    DCD    19200
        0x1007affc:    00009600    ....    DCD    38400
        0x1007b000:    0000e100    ....    DCD    57600
        0x1007b004:    0001c200    ....    DCD    115200
        0x1007b008:    00038400    ....    DCD    230400
        0x1007b00c:    00070800    ....    DCD    460800
        0x1007b010:    000e1000    ....    DCD    921600
        0x1007b014:    00080000    ....    DCD    524288
        0x1007b018:    00000018    ....    DCD    24
        0x1007b01c:    00000000    ....    DCD    0
    .constdata
        0x1007b020:    00100000    ....    DCD    1048576
        0x1007b024:    00920044    D...    DCD    9568324
        0x1007b028:    00aa0029    )...    DCD    11141161
        0x1007b02c:    00db00b6    ....    DCD    14352566
        0x1007b030:    00ff00ad    ....    DCD    16711853
        0x1007b034:    000000ff    ....    DCD    255
        0x1007b038:    00000000    ....    DCD    0
        0x1007b03c:    00000000    ....    DCD    0
        0x1007b040:    00010001    ....    DCD    65537
        0x1007b044:    00010001    ....    DCD    65537
        0x1007b048:    00010001    ....    DCD    65537
        0x1007b04c:    00000003    ....    DCD    3
    Region$$Table$$Base
        0x1007b050:    1007b0a0    ....    DCD    268939424
        0x1007b054:    00100000    ....    DCD    1048576
        0x1007b058:    00000084    ....    DCD    132
        0x1007b05c:    100798ac    ....    DCD    268933292
        0x1007b060:    1007b124    $...    DCD    268939556
        0x1007b064:    20000000    ...     DCD    536870912
        0x1007b068:    000001c0    ....    DCD    448
        0x1007b06c:    100798ac    ....    DCD    268933292
        0x1007b070:    1007b2e4    ....    DCD    268940004
        0x1007b074:    200001c0    ...     DCD    536871360
        0x1007b078:    00000018    ....    DCD    24
        0x1007b07c:    100798ac    ....    DCD    268933292
        0x1007b080:    1007b2fc    ....    DCD    268940028
        0x1007b084:    200001d8    ...     DCD    536871384
        0x1007b088:    000003bc    ....    DCD    956
        0x1007b08c:    100798bc    ....    DCD    268933308
        0x1007b090:    1007b2fc    ....    DCD    268940028
        0x1007b094:    2003f000    ...     DCD    537128960
        0x1007b098:    00000c00    ....    DCD    3072
        0x1007b09c:    100798bc    ....    DCD    268933308
    Region$$Table$$Limit

** Section #2 'TCM' (SHT_PROGBITS) [SHF_ALLOC + SHF_EXECINSTR]
    Size   : 132 bytes (alignment 4)
    Address: 0x00100000

    $t
    .ramTEXT
    isrC_main
        0x00100000:    4a10        .J      LDR      r2,[pc,#64] ; [0x100044] = 0xe000ed04
        0x00100002:    b510        ..      PUSH     {r4,lr}
        0x00100004:    6810        .h      LDR      r0,[r2,#0]
        0x00100006:    3810        .8      SUBS     r0,r0,#0x10
        0x00100008:    b240        @.      SXTB     r0,r0
        0x0010000a:    2860        `(      CMP      r0,#0x60
        0x0010000c:    d302        ..      BCC      0x100014 ; isrC_main + 20
        0x0010000e:    f06f0002    o...    MVN      r0,#2
        0x00100012:    bd10        ..      POP      {r4,pc}
        0x00100014:    490c        .I      LDR      r1,[pc,#48] ; [0x100048] = 0x200001d8
        0x00100016:    f8513030    Q.00    LDR      r3,[r1,r0,LSL #3]
        0x0010001a:    b153        S.      CBZ      r3,0x100032 ; isrC_main + 50
        0x0010001c:    6812        .h      LDR      r2,[r2,#0]
        0x0010001e:    eb0103c0    ....    ADD      r3,r1,r0,LSL #3
        0x00100022:    f3c25280    ...R    UBFX     r2,r2,#22,#1
        0x00100026:    605a        Z`      STR      r2,[r3,#4]
        0x00100028:    f8511030    Q.0.    LDR      r1,[r1,r0,LSL #3]
        0x0010002c:    4788        .G      BLX      r1
        0x0010002e:    2000        .       MOVS     r0,#0
        0x00100030:    bd10        ..      POP      {r4,pc}
        0x00100032:    f06f0403    o...    MVN      r4,#3
        0x00100036:    a205        ..      ADR      r2,{pc}+0x16 ; 0x10004c
        0x00100038:    21c2        .!      MOVS     r1,#0xc2
        0x0010003a:    480b        .H      LDR      r0,[pc,#44] ; [0x100068] = 0x1007afbc
        0x0010003c:    f000f81d    ....    BL       $Ven$TT$L$$log_hal_error_internal ; 0x10007a
        0x00100040:    4620         F      MOV      r0,r4
        0x00100042:    bd10        ..      POP      {r4,pc}
    $d
        0x00100044:    e000ed04    ....    DCD    3758157060
        0x00100048:    200001d8    ...     DCD    536871384
        0x0010004c:    4f525245    ERRO    DCD    1330795077
        0x00100050:    6e203a52    R: n    DCD    1847605842
        0x00100054:    5249206f    o IR    DCD    1380524143
        0x00100058:    61682051    Q ha    DCD    1634213969
        0x0010005c:    656c646e    ndle    DCD    1701602414
        0x00100060:    0a202172    r! .    DCD    169877874
        0x00100064:    00000000    ....    DCD    0
        0x00100068:    1007afbc    ....    DCD    268939196
    $t
    .ramTEXT
    save_and_set_interrupt_mask
        0x0010006c:    f3ef8010    ....    MRS      r0,PRIMASK
        0x00100070:    b672        r.      CPSID    i
        0x00100072:    4770        pG      BX       lr
    restore_interrupt_mask
        0x00100074:    f3808810    ....    MSR      PRIMASK,r0
        0x00100078:    4770        pG      BX       lr
    $Ven$TT$L$$log_hal_error_internal
        0x0010007a:    f64a3c95    J..<    MOV      r12,#0xab95
        0x0010007e:    f2c10c07    ....    MOVT     r12,#0x1007
        0x00100082:    4760        `G      BX       r12

** Section #3 'DATA' (SHT_PROGBITS) [SHF_ALLOC]
    Size   : 448 bytes (alignment 4)
    Address: 0x20000000


** Section #4 'DATA' (SHT_PROGBITS) [SHF_ALLOC + SHF_WRITE]
    Size   : 24 bytes (alignment 4)
    Address: 0x200001c0


** Section #5 'DATA' (SHT_NOBITS) [SHF_ALLOC + SHF_WRITE]
    Size   : 956 bytes (alignment 4)
    Address: 0x200001d8


** Section #6 'STACK' (SHT_NOBITS) [SHF_ALLOC + SHF_WRITE]
    Size   : 3072 bytes (alignment 8)
    Address: 0x2003f000


** Section #7 '.debug_abbrev' (SHT_PROGBITS)
    Size   : 1476 bytes


** Section #8 '.debug_frame' (SHT_PROGBITS)
    Size   : 3372 bytes


** Section #9 '.debug_info' (SHT_PROGBITS)
    Size   : 52112 bytes


** Section #10 '.debug_line' (SHT_PROGBITS)
    Size   : 16824 bytes


** Section #11 '.debug_loc' (SHT_PROGBITS)
    Size   : 5348 bytes


** Section #12 '.debug_macinfo' (SHT_PROGBITS)
    Size   : 35148 bytes


** Section #13 '.debug_pubnames' (SHT_PROGBITS)
    Size   : 2697 bytes


** Section #14 '.symtab' (SHT_SYMTAB)
    Size   : 7984 bytes (alignment 4)
    String table #15 '.strtab'
    Last local symbol no. 318


** Section #15 '.strtab' (SHT_STRTAB)
    Size   : 7660 bytes


** Section #16 '.note' (SHT_NOTE)
    Size   : 40 bytes (alignment 4)


** Section #17 '.comment' (SHT_PROGBITS)
    Size   : 33556 bytes


** Section #18 '.shstrtab' (SHT_STRTAB)
    Size   : 160 bytes


